

Microchip MPLAB XC8 Assembler V2.32 build 20210201212658 
                                                                                               Mon Aug 30 16:31:17 2021

Microchip MPLAB XC8 C Compiler v2.32 (Free license) build 20210201212658 Og1 
     1                           	processor	16F887
     2                           	pagewidth 120
     3                           	opt	flic
     4                           	psect	cinit,global,class=CODE,merge=1,delta=2
     5                           	psect	bssCOMMON,global,class=COMMON,space=1,delta=1,noexec
     6                           	psect	bssBANK0,global,class=BANK0,space=1,delta=1,noexec
     7                           	psect	cstackCOMMON,global,class=COMMON,space=1,delta=1,noexec
     8                           	psect	cstackBANK0,global,class=BANK0,space=1,delta=1,noexec
     9                           	psect	maintext,global,class=CODE,split=1,delta=2
    10                           	psect	text1,local,class=CODE,merge=1,delta=2
    11                           	psect	text2,local,class=CODE,merge=1,delta=2
    12                           	psect	text3,local,class=CODE,merge=1,delta=2
    13                           	psect	text4,local,class=CODE,merge=1,delta=2
    14                           	psect	text5,local,class=CODE,merge=1,delta=2,group=1
    15                           	psect	text6,local,class=CODE,merge=1,delta=2,group=1
    16                           	psect	text7,local,class=CODE,merge=1,delta=2,group=1
    17                           	psect	text8,local,class=CODE,merge=1,delta=2,group=1
    18                           	psect	text9,local,class=CODE,merge=1,delta=2,group=1
    19                           	psect	text10,local,class=CODE,merge=1,delta=2,group=1
    20                           	psect	text11,local,class=CODE,merge=1,delta=2,group=1
    21                           	psect	text12,local,class=CODE,merge=1,delta=2
    22                           	psect	intentry,global,class=CODE,delta=2
    23                           	psect	config,global,abs,ovrld,class=CONFIG,space=4,delta=2,noexec
    24                           	dabs	1,0x7E,2
    25  0000                     
    26                           ; Version 2.20
    27                           ; Generated 12/02/2020 GMT
    28                           ; 
    29                           ; Copyright © 2020, Microchip Technology Inc. and its subsidiaries ("Microchip")
    30                           ; All rights reserved.
    31                           ; 
    32                           ; This software is developed by Microchip Technology Inc. and its subsidiaries ("Microch
      +                          ip").
    33                           ; 
    34                           ; Redistribution and use in source and binary forms, with or without modification, are
    35                           ; permitted provided that the following conditions are met:
    36                           ; 
    37                           ;     1. Redistributions of source code must retain the above copyright notice, this lis
      +                          t of
    38                           ;        conditions and the following disclaimer.
    39                           ; 
    40                           ;     2. Redistributions in binary form must reproduce the above copyright notice, this 
      +                          list
    41                           ;        of conditions and the following disclaimer in the documentation and/or other
    42                           ;        materials provided with the distribution.
    43                           ; 
    44                           ;     3. Microchip's name may not be used to endorse or promote products derived from th
      +                          is
    45                           ;        software without specific prior written permission.
    46                           ; 
    47                           ; THIS SOFTWARE IS PROVIDED BY MICROCHIP "AS IS" AND ANY EXPRESS OR IMPLIED WARRANTIES,
    48                           ; INCLUDING, BUT NOT LIMITED TO, THE IMPLIED WARRANTIES OF MERCHANTABILITY AND FITNESS F
      +                          OR
    49                           ; PURPOSE ARE DISCLAIMED.  IN NO EVENT SHALL MICROCHIP BE LIABLE FOR ANY DIRECT, INDIREC
      +                          T,
    50                           ; INCIDENTAL, SPECIAL, EXEMPLARY, OR CONSEQUENTIAL DAMAGES (INCLUDING BUT NOT LIMITED TO
    51                           ; PROCUREMENT OF SUBSTITUTE GOODS OR SERVICES; LOSS OF USE, DATA OR PROFITS; OR BUSINESS
    52                           ; INTERRUPTION) HOWSOEVER CAUSED AND ON ANY THEORY OF LIABILITY, WHETHER IN CONTRACT, ST
      +                          RICT
    53                           ; LIABILITY, OR TORT (INCLUDING NEGLIGENCE OR OTHERWISE) ARISING IN ANY WAY OUT OF THE U
      +                          SE OF
    54                           ; THIS SOFTWARE, EVEN IF ADVISED OF THE POSSIBILITY OF SUCH DAMAGE.
    55                           ; 
    56                           ; 
    57                           ; Code-generator required, PIC16F887 Definitions
    58                           ; 
    59                           ; SFR Addresses
    60  0000                     	;# 
    61  0001                     	;# 
    62  0002                     	;# 
    63  0003                     	;# 
    64  0004                     	;# 
    65  0005                     	;# 
    66  0006                     	;# 
    67  0007                     	;# 
    68  0008                     	;# 
    69  0009                     	;# 
    70  000A                     	;# 
    71  000B                     	;# 
    72  000C                     	;# 
    73  000D                     	;# 
    74  000E                     	;# 
    75  000E                     	;# 
    76  000F                     	;# 
    77  0010                     	;# 
    78  0011                     	;# 
    79  0012                     	;# 
    80  0013                     	;# 
    81  0014                     	;# 
    82  0015                     	;# 
    83  0015                     	;# 
    84  0016                     	;# 
    85  0017                     	;# 
    86  0018                     	;# 
    87  0019                     	;# 
    88  001A                     	;# 
    89  001B                     	;# 
    90  001B                     	;# 
    91  001C                     	;# 
    92  001D                     	;# 
    93  001E                     	;# 
    94  001F                     	;# 
    95  0081                     	;# 
    96  0085                     	;# 
    97  0086                     	;# 
    98  0087                     	;# 
    99  0088                     	;# 
   100  0089                     	;# 
   101  008C                     	;# 
   102  008D                     	;# 
   103  008E                     	;# 
   104  008F                     	;# 
   105  0090                     	;# 
   106  0091                     	;# 
   107  0092                     	;# 
   108  0093                     	;# 
   109  0093                     	;# 
   110  0093                     	;# 
   111  0094                     	;# 
   112  0095                     	;# 
   113  0096                     	;# 
   114  0097                     	;# 
   115  0098                     	;# 
   116  0099                     	;# 
   117  009A                     	;# 
   118  009B                     	;# 
   119  009C                     	;# 
   120  009D                     	;# 
   121  009E                     	;# 
   122  009F                     	;# 
   123  0105                     	;# 
   124  0107                     	;# 
   125  0108                     	;# 
   126  0109                     	;# 
   127  010C                     	;# 
   128  010C                     	;# 
   129  010D                     	;# 
   130  010E                     	;# 
   131  010F                     	;# 
   132  0185                     	;# 
   133  0187                     	;# 
   134  0188                     	;# 
   135  0189                     	;# 
   136  018C                     	;# 
   137  018D                     	;# 
   138  0000                     	;# 
   139  0001                     	;# 
   140  0002                     	;# 
   141  0003                     	;# 
   142  0004                     	;# 
   143  0005                     	;# 
   144  0006                     	;# 
   145  0007                     	;# 
   146  0008                     	;# 
   147  0009                     	;# 
   148  000A                     	;# 
   149  000B                     	;# 
   150  000C                     	;# 
   151  000D                     	;# 
   152  000E                     	;# 
   153  000E                     	;# 
   154  000F                     	;# 
   155  0010                     	;# 
   156  0011                     	;# 
   157  0012                     	;# 
   158  0013                     	;# 
   159  0014                     	;# 
   160  0015                     	;# 
   161  0015                     	;# 
   162  0016                     	;# 
   163  0017                     	;# 
   164  0018                     	;# 
   165  0019                     	;# 
   166  001A                     	;# 
   167  001B                     	;# 
   168  001B                     	;# 
   169  001C                     	;# 
   170  001D                     	;# 
   171  001E                     	;# 
   172  001F                     	;# 
   173  0081                     	;# 
   174  0085                     	;# 
   175  0086                     	;# 
   176  0087                     	;# 
   177  0088                     	;# 
   178  0089                     	;# 
   179  008C                     	;# 
   180  008D                     	;# 
   181  008E                     	;# 
   182  008F                     	;# 
   183  0090                     	;# 
   184  0091                     	;# 
   185  0092                     	;# 
   186  0093                     	;# 
   187  0093                     	;# 
   188  0093                     	;# 
   189  0094                     	;# 
   190  0095                     	;# 
   191  0096                     	;# 
   192  0097                     	;# 
   193  0098                     	;# 
   194  0099                     	;# 
   195  009A                     	;# 
   196  009B                     	;# 
   197  009C                     	;# 
   198  009D                     	;# 
   199  009E                     	;# 
   200  009F                     	;# 
   201  0105                     	;# 
   202  0107                     	;# 
   203  0108                     	;# 
   204  0109                     	;# 
   205  010C                     	;# 
   206  010C                     	;# 
   207  010D                     	;# 
   208  010E                     	;# 
   209  010F                     	;# 
   210  0185                     	;# 
   211  0187                     	;# 
   212  0188                     	;# 
   213  0189                     	;# 
   214  018C                     	;# 
   215  018D                     	;# 
   216  0000                     	;# 
   217  0001                     	;# 
   218  0002                     	;# 
   219  0003                     	;# 
   220  0004                     	;# 
   221  0005                     	;# 
   222  0006                     	;# 
   223  0007                     	;# 
   224  0008                     	;# 
   225  0009                     	;# 
   226  000A                     	;# 
   227  000B                     	;# 
   228  000C                     	;# 
   229  000D                     	;# 
   230  000E                     	;# 
   231  000E                     	;# 
   232  000F                     	;# 
   233  0010                     	;# 
   234  0011                     	;# 
   235  0012                     	;# 
   236  0013                     	;# 
   237  0014                     	;# 
   238  0015                     	;# 
   239  0015                     	;# 
   240  0016                     	;# 
   241  0017                     	;# 
   242  0018                     	;# 
   243  0019                     	;# 
   244  001A                     	;# 
   245  001B                     	;# 
   246  001B                     	;# 
   247  001C                     	;# 
   248  001D                     	;# 
   249  001E                     	;# 
   250  001F                     	;# 
   251  0081                     	;# 
   252  0085                     	;# 
   253  0086                     	;# 
   254  0087                     	;# 
   255  0088                     	;# 
   256  0089                     	;# 
   257  008C                     	;# 
   258  008D                     	;# 
   259  008E                     	;# 
   260  008F                     	;# 
   261  0090                     	;# 
   262  0091                     	;# 
   263  0092                     	;# 
   264  0093                     	;# 
   265  0093                     	;# 
   266  0093                     	;# 
   267  0094                     	;# 
   268  0095                     	;# 
   269  0096                     	;# 
   270  0097                     	;# 
   271  0098                     	;# 
   272  0099                     	;# 
   273  009A                     	;# 
   274  009B                     	;# 
   275  009C                     	;# 
   276  009D                     	;# 
   277  009E                     	;# 
   278  009F                     	;# 
   279  0105                     	;# 
   280  0107                     	;# 
   281  0108                     	;# 
   282  0109                     	;# 
   283  010C                     	;# 
   284  010C                     	;# 
   285  010D                     	;# 
   286  010E                     	;# 
   287  010F                     	;# 
   288  0185                     	;# 
   289  0187                     	;# 
   290  0188                     	;# 
   291  0189                     	;# 
   292  018C                     	;# 
   293  018D                     	;# 
   294  000E                     _TMR1	set	14
   295  000B                     _INTCONbits	set	11
   296  0010                     _T1CONbits	set	16
   297  0009                     _PORTE	set	9
   298  0008                     _PORTD	set	8
   299  0007                     _PORTC	set	7
   300  0006                     _PORTB	set	6
   301  0005                     _PORTA	set	5
   302  0014                     _SSPCONbits	set	20
   303  000C                     _PIR1bits	set	12
   304  0006                     _PORTBbits	set	6
   305  0013                     _SSPBUF	set	19
   306  0014                     _SSPCON	set	20
   307  0031                     _RB1	set	49
   308  0030                     _RB0	set	48
   309  0063                     _SSPIF	set	99
   310  005E                     _PEIE	set	94
   311  005F                     _GIE	set	95
   312  008F                     _OSCCONbits	set	143
   313  0089                     _TRISE	set	137
   314  0088                     _TRISD	set	136
   315  0087                     _TRISC	set	135
   316  0086                     _TRISB	set	134
   317  0085                     _TRISA	set	133
   318  0094                     _SSPSTATbits	set	148
   319  0091                     _SSPCON2bits	set	145
   320  0087                     _TRISCbits	set	135
   321  0094                     _SSPSTAT	set	148
   322  0093                     _SSPADD	set	147
   323  0091                     _SSPCON2	set	145
   324  04A0                     _BF	set	1184
   325  0463                     _SSPIE	set	1123
   326  043C                     _TRISC4	set	1084
   327  043B                     _TRISC3	set	1083
   328  0188                     _ANSEL	set	392
   329  0189                     _ANSELH	set	393
   330                           
   331                           	psect	cinit
   332  000F                     start_initialization:	
   333                           ; #config settings
   334                           
   335  000F                     __initialization:
   336                           
   337                           ; Clear objects allocated to COMMON
   338  000F  01F8               	clrf	__pbssCOMMON& (0+127)
   339  0010  01F9               	clrf	(__pbssCOMMON+1)& (0+127)
   340  0011  01FA               	clrf	(__pbssCOMMON+2)& (0+127)
   341                           
   342                           ; Clear objects allocated to BANK0
   343  0012  1283               	bcf	3,5	;RP0=0, select bank0
   344  0013  1303               	bcf	3,6	;RP1=0, select bank0
   345  0014  01DA               	clrf	__pbssBANK0& (0+127)
   346  0015  01DB               	clrf	(__pbssBANK0+1)& (0+127)
   347  0016                     end_of_initialization:	
   348                           ;End of C runtime variable initialization code
   349                           
   350  0016                     __end_of__initialization:
   351  0016  0183               	clrf	3
   352  0017  120A  118A  2EC7   	ljmp	_main	;jump to C main() function
   353                           
   354                           	psect	bssCOMMON
   355  0078                     __pbssCOMMON:
   356  0078                     _z:
   357  0078                     	ds	1
   358  0079                     _tnk:
   359  0079                     	ds	1
   360  007A                     _distancia:
   361  007A                     	ds	1
   362                           
   363                           	psect	bssBANK0
   364  005A                     __pbssBANK0:
   365  005A                     _duracion:
   366  005A                     	ds	2
   367                           
   368                           	psect	cstackCOMMON
   369  0070                     __pcstackCOMMON:
   370  0070                     ?_setup:
   371  0070                     ?_pulseOut:	
   372                           ; 1 bytes @ 0x0
   373                           
   374  0070                     ?_pulseIn:	
   375                           ; 1 bytes @ 0x0
   376                           
   377  0070                     ?_I2C_Slave_Init:	
   378                           ; 1 bytes @ 0x0
   379                           
   380  0070                     ?_main:	
   381                           ; 1 bytes @ 0x0
   382                           
   383  0070                     ?_isr:	
   384                           ; 1 bytes @ 0x0
   385                           
   386  0070                     ??_isr:	
   387                           ; 1 bytes @ 0x0
   388                           
   389                           
   390                           ; 1 bytes @ 0x0
   391  0070                     	ds	3
   392  0073                     ??_pulseOut:
   393  0073                     ??_pulseIn:	
   394                           ; 1 bytes @ 0x3
   395                           
   396  0073                     ??_I2C_Slave_Init:	
   397                           ; 1 bytes @ 0x3
   398                           
   399  0073                     ?__Umul8_16:	
   400                           ; 1 bytes @ 0x3
   401                           
   402  0073                     ?___lwdiv:	
   403                           ; 2 bytes @ 0x3
   404                           
   405  0073                     ?___xxtofl:	
   406                           ; 2 bytes @ 0x3
   407                           
   408  0073                     I2C_Slave_Init@address:	
   409                           ; 4 bytes @ 0x3
   410                           
   411  0073                     ___fladd@signs:	
   412                           ; 1 bytes @ 0x3
   413                           
   414  0073                     __Umul8_16@multiplicand:	
   415                           ; 1 bytes @ 0x3
   416                           
   417  0073                     ___lwdiv@divisor:	
   418                           ; 1 bytes @ 0x3
   419                           
   420  0073                     ___xxtofl@val:	
   421                           ; 2 bytes @ 0x3
   422                           
   423                           
   424                           ; 4 bytes @ 0x3
   425  0073                     	ds	1
   426  0074                     ??_setup:
   427  0074                     ___fladd@aexp:	
   428                           ; 1 bytes @ 0x4
   429                           
   430                           
   431                           ; 1 bytes @ 0x4
   432  0074                     	ds	1
   433  0075                     ??__Umul8_16:
   434  0075                     ___fladd@bexp:	
   435                           ; 1 bytes @ 0x5
   436                           
   437  0075                     ___lwdiv@dividend:	
   438                           ; 1 bytes @ 0x5
   439                           
   440                           
   441                           ; 2 bytes @ 0x5
   442  0075                     	ds	1
   443  0076                     ___fladd@grs:
   444                           
   445                           ; 1 bytes @ 0x6
   446  0076                     	ds	1
   447  0077                     ??___lwdiv:
   448  0077                     ??___flsub:	
   449                           ; 1 bytes @ 0x7
   450                           
   451                           
   452                           ; 1 bytes @ 0x7
   453  0077                     	ds	1
   454                           
   455                           	psect	cstackBANK0
   456  0020                     __pcstackBANK0:
   457  0020                     ??___xxtofl:
   458  0020                     ?___fladd:	
   459                           ; 1 bytes @ 0x0
   460                           
   461  0020                     ___lwdiv@counter:	
   462                           ; 4 bytes @ 0x0
   463                           
   464  0020                     __Umul8_16@product:	
   465                           ; 1 bytes @ 0x0
   466                           
   467  0020                     ___fladd@b:	
   468                           ; 2 bytes @ 0x0
   469                           
   470                           
   471                           ; 4 bytes @ 0x0
   472  0020                     	ds	1
   473  0021                     ___lwdiv@quotient:
   474                           
   475                           ; 2 bytes @ 0x1
   476  0021                     	ds	1
   477  0022                     __Umul8_16@word_mpld:
   478                           
   479                           ; 2 bytes @ 0x2
   480  0022                     	ds	2
   481  0024                     __Umul8_16@multiplier:
   482  0024                     ___xxtofl@sign:	
   483                           ; 1 bytes @ 0x4
   484                           
   485  0024                     ___fladd@a:	
   486                           ; 1 bytes @ 0x4
   487                           
   488                           
   489                           ; 4 bytes @ 0x4
   490  0024                     	ds	1
   491  0025                     ___xxtofl@exp:
   492                           
   493                           ; 1 bytes @ 0x5
   494  0025                     	ds	1
   495  0026                     ___xxtofl@arg:
   496                           
   497                           ; 4 bytes @ 0x6
   498  0026                     	ds	2
   499  0028                     ??___fladd:
   500                           
   501                           ; 1 bytes @ 0x8
   502  0028                     	ds	2
   503  002A                     ?___flmul:
   504  002A                     ___flmul@b:	
   505                           ; 4 bytes @ 0xA
   506                           
   507                           
   508                           ; 4 bytes @ 0xA
   509  002A                     	ds	4
   510  002E                     ___flmul@a:
   511                           
   512                           ; 4 bytes @ 0xE
   513  002E                     	ds	4
   514  0032                     ??___flmul:
   515                           
   516                           ; 1 bytes @ 0x12
   517  0032                     	ds	5
   518  0037                     ___flmul@sign:
   519                           
   520                           ; 1 bytes @ 0x17
   521  0037                     	ds	1
   522  0038                     ___flmul@grs:
   523                           
   524                           ; 4 bytes @ 0x18
   525  0038                     	ds	4
   526  003C                     ___flmul@aexp:
   527                           
   528                           ; 1 bytes @ 0x1C
   529  003C                     	ds	1
   530  003D                     ___flmul@bexp:
   531                           
   532                           ; 1 bytes @ 0x1D
   533  003D                     	ds	1
   534  003E                     ___flmul@prod:
   535                           
   536                           ; 4 bytes @ 0x1E
   537  003E                     	ds	4
   538  0042                     ___flmul@temp:
   539                           
   540                           ; 2 bytes @ 0x22
   541  0042                     	ds	2
   542  0044                     ?___flsub:
   543  0044                     ___flsub@a:	
   544                           ; 4 bytes @ 0x24
   545                           
   546                           
   547                           ; 4 bytes @ 0x24
   548  0044                     	ds	4
   549  0048                     ___flsub@b:
   550                           
   551                           ; 4 bytes @ 0x28
   552  0048                     	ds	4
   553  004C                     ?___fltol:
   554  004C                     ___fltol@f1:	
   555                           ; 4 bytes @ 0x2C
   556                           
   557                           
   558                           ; 4 bytes @ 0x2C
   559  004C                     	ds	4
   560  0050                     ??___fltol:
   561                           
   562                           ; 1 bytes @ 0x30
   563  0050                     	ds	5
   564  0055                     ___fltol@sign1:
   565                           
   566                           ; 1 bytes @ 0x35
   567  0055                     	ds	1
   568  0056                     ___fltol@exp1:
   569                           
   570                           ; 1 bytes @ 0x36
   571  0056                     	ds	1
   572  0057                     ??_main:
   573                           
   574                           ; 1 bytes @ 0x37
   575  0057                     	ds	3
   576                           
   577                           	psect	maintext
   578  06C7                     __pmaintext:	
   579 ;;
   580 ;;Main: autosize = 0, tempsize = 3, incstack = 0, save=0
   581 ;;
   582 ;; *************** function _main *****************
   583 ;; Defined at:
   584 ;;		line 62 in file "P1 Slave3 HC-SR04.c"
   585 ;; Parameters:    Size  Location     Type
   586 ;;		None
   587 ;; Auto vars:     Size  Location     Type
   588 ;;		None
   589 ;; Return value:  Size  Location     Type
   590 ;;                  1    wreg      void 
   591 ;; Registers used:
   592 ;;		wreg, status,2, status,0, btemp+1, pclath, cstack
   593 ;; Tracked objects:
   594 ;;		On entry : B00/0
   595 ;;		On exit  : 0/0
   596 ;;		Unchanged: 0/0
   597 ;; Data sizes:     COMMON   BANK0   BANK1   BANK3   BANK2
   598 ;;      Params:         0       0       0       0       0
   599 ;;      Locals:         0       0       0       0       0
   600 ;;      Temps:          0       3       0       0       0
   601 ;;      Totals:         0       3       0       0       0
   602 ;;Total ram usage:        3 bytes
   603 ;; Hardware stack levels required when called: 3
   604 ;; This function calls:
   605 ;;		___flmul
   606 ;;		___flsub
   607 ;;		___fltol
   608 ;;		___lwdiv
   609 ;;		___xxtofl
   610 ;;		_pulseIn
   611 ;;		_pulseOut
   612 ;;		_setup
   613 ;; This function is called by:
   614 ;;		Startup code after reset
   615 ;; This function uses a non-reentrant model
   616 ;;
   617                           
   618                           
   619                           ;psect for function _main
   620  06C7                     _main:
   621  06C7                     l2163:	
   622                           ;incstack = 0
   623                           ; Regs used in _main: [wreg+status,2+status,0+btemp+1+pclath+cstack]
   624                           
   625                           
   626                           ;P1 Slave3 HC-SR04.c: 63:     setup();
   627  06C7  120A  158A  2731  120A  118A  	fcall	_setup
   628  06CC                     l2165:
   629                           
   630                           ;P1 Slave3 HC-SR04.c: 64:     TMR1 = 0;
   631  06CC  1283               	bcf	3,5	;RP0=0, select bank0
   632  06CD  1303               	bcf	3,6	;RP1=0, select bank0
   633  06CE  018E               	clrf	14	;volatile
   634  06CF  018F               	clrf	15	;volatile
   635  06D0                     l2167:
   636                           
   637                           ;P1 Slave3 HC-SR04.c: 70:         pulseOut();
   638  06D0  120A  158A  26BC  120A  118A  	fcall	_pulseOut
   639  06D5                     l2169:
   640                           
   641                           ;P1 Slave3 HC-SR04.c: 71:         pulseIn();
   642  06D5  120A  158A  26AF  120A  118A  	fcall	_pulseIn
   643  06DA                     l2171:
   644                           
   645                           ;P1 Slave3 HC-SR04.c: 72:         duracion = TMR1;
   646  06DA  1283               	bcf	3,5	;RP0=0, select bank0
   647  06DB  1303               	bcf	3,6	;RP1=0, select bank0
   648  06DC  080F               	movf	15,w	;volatile
   649  06DD  00DB               	movwf	_duracion+1
   650  06DE  080E               	movf	14,w	;volatile
   651  06DF  00DA               	movwf	_duracion
   652  06E0                     l2173:
   653                           
   654                           ;P1 Slave3 HC-SR04.c: 73:         distancia = (duracion)/58;
   655  06E0  303A               	movlw	58
   656  06E1  00F3               	movwf	___lwdiv@divisor
   657  06E2  3000               	movlw	0
   658  06E3  00F4               	movwf	___lwdiv@divisor+1
   659  06E4  085B               	movf	_duracion+1,w
   660  06E5  00F6               	movwf	___lwdiv@dividend+1
   661  06E6  085A               	movf	_duracion,w
   662  06E7  00F5               	movwf	___lwdiv@dividend
   663  06E8  120A  158A  275B  120A  118A  	fcall	___lwdiv
   664  06ED  0873               	movf	?___lwdiv,w
   665  06EE  1283               	bcf	3,5	;RP0=0, select bank0
   666  06EF  1303               	bcf	3,6	;RP1=0, select bank0
   667  06F0  00D7               	movwf	??_main
   668  06F1  0857               	movf	??_main,w
   669  06F2  00FA               	movwf	_distancia
   670  06F3                     l2175:
   671                           
   672                           ;P1 Slave3 HC-SR04.c: 75:         if(distancia >= 40 && distancia <= 44){
   673  06F3  3028               	movlw	40
   674  06F4  027A               	subwf	_distancia,w
   675  06F5  1C03               	skipc
   676  06F6  2EF8               	goto	u3231
   677  06F7  2EF9               	goto	u3230
   678  06F8                     u3231:
   679  06F8  2F23               	goto	l2185
   680  06F9                     u3230:
   681  06F9                     l2177:
   682  06F9  302D               	movlw	45
   683  06FA  027A               	subwf	_distancia,w
   684  06FB  1803               	skipnc
   685  06FC  2EFE               	goto	u3241
   686  06FD  2EFF               	goto	u3240
   687  06FE                     u3241:
   688  06FE  2F23               	goto	l2185
   689  06FF                     u3240:
   690  06FF                     l2179:
   691                           
   692                           ;P1 Slave3 HC-SR04.c: 76:             distancia = 40;
   693  06FF  3028               	movlw	40
   694  0700  00D7               	movwf	??_main
   695  0701  0857               	movf	??_main,w
   696  0702  00FA               	movwf	_distancia
   697  0703                     l2181:
   698                           
   699                           ;P1 Slave3 HC-SR04.c: 77:             PORTBbits.RB2 = 1;
   700  0703  1506               	bsf	6,2	;volatile
   701                           
   702                           ;P1 Slave3 HC-SR04.c: 78:             _delay((unsigned long)((500)*(8000000/4000.0)));
   703  0704  3006               	movlw	6
   704  0705  1283               	bcf	3,5	;RP0=0, select bank0
   705  0706  1303               	bcf	3,6	;RP1=0, select bank0
   706  0707  00D9               	movwf	??_main+2
   707  0708  3013               	movlw	19
   708  0709  00D8               	movwf	??_main+1
   709  070A  30AD               	movlw	173
   710  070B  00D7               	movwf	??_main
   711  070C                     u3257:
   712  070C  0BD7               	decfsz	??_main,f
   713  070D  2F0C               	goto	u3257
   714  070E  0BD8               	decfsz	??_main+1,f
   715  070F  2F0C               	goto	u3257
   716  0710  0BD9               	decfsz	??_main+2,f
   717  0711  2F0C               	goto	u3257
   718  0712                     l2183:
   719                           
   720                           ;P1 Slave3 HC-SR04.c: 79:             PORTBbits.RB2 = 0;
   721  0712  1283               	bcf	3,5	;RP0=0, select bank0
   722  0713  1303               	bcf	3,6	;RP1=0, select bank0
   723  0714  1106               	bcf	6,2	;volatile
   724                           
   725                           ;P1 Slave3 HC-SR04.c: 80:             _delay((unsigned long)((750)*(8000000/4000.0)));
   726  0715  3008               	movlw	8
   727  0716  1283               	bcf	3,5	;RP0=0, select bank0
   728  0717  1303               	bcf	3,6	;RP1=0, select bank0
   729  0718  00D9               	movwf	??_main+2
   730  0719  309D               	movlw	157
   731  071A  00D8               	movwf	??_main+1
   732  071B  3005               	movlw	5
   733  071C  00D7               	movwf	??_main
   734  071D                     u3267:
   735  071D  0BD7               	decfsz	??_main,f
   736  071E  2F1D               	goto	u3267
   737  071F  0BD8               	decfsz	??_main+1,f
   738  0720  2F1D               	goto	u3267
   739  0721  0BD9               	decfsz	??_main+2,f
   740  0722  2F1D               	goto	u3267
   741  0723                     l2185:
   742                           
   743                           ;P1 Slave3 HC-SR04.c: 82:         tnk = 100-((distancia-3)*2.702);
   744  0723  3042               	movlw	66
   745  0724  1283               	bcf	3,5	;RP0=0, select bank0
   746  0725  1303               	bcf	3,6	;RP1=0, select bank0
   747  0726  00CB               	movwf	___flsub@b+3
   748  0727  30C8               	movlw	200
   749  0728  00CA               	movwf	___flsub@b+2
   750  0729  3000               	movlw	0
   751  072A  00C9               	movwf	___flsub@b+1
   752  072B  3000               	movlw	0
   753  072C  00C8               	movwf	___flsub@b
   754  072D  087A               	movf	_distancia,w
   755  072E  3EFD               	addlw	253
   756  072F  00F3               	movwf	___xxtofl@val
   757  0730  30FF               	movlw	255
   758  0731  1803               	skipnc
   759  0732  3000               	movlw	0
   760  0733  00F4               	movwf	___xxtofl@val+1
   761  0734  01F5               	clrf	___xxtofl@val+2
   762  0735  1BF4               	btfsc	___xxtofl@val+1,7
   763  0736  03F5               	decf	___xxtofl@val+2,f
   764  0737  0875               	movf	___xxtofl@val+2,w
   765  0738  00F6               	movwf	___xxtofl@val+3
   766  0739  3001               	movlw	1
   767  073A  120A  118A  260B  120A  118A  	fcall	___xxtofl
   768  073F  0876               	movf	?___xxtofl+3,w
   769  0740  1283               	bcf	3,5	;RP0=0, select bank0
   770  0741  1303               	bcf	3,6	;RP1=0, select bank0
   771  0742  00B1               	movwf	___flmul@a+3
   772  0743  0875               	movf	?___xxtofl+2,w
   773  0744  00B0               	movwf	___flmul@a+2
   774  0745  0874               	movf	?___xxtofl+1,w
   775  0746  00AF               	movwf	___flmul@a+1
   776  0747  0873               	movf	?___xxtofl,w
   777  0748  00AE               	movwf	___flmul@a
   778  0749  3040               	movlw	64
   779  074A  00AD               	movwf	___flmul@b+3
   780  074B  302C               	movlw	44
   781  074C  00AC               	movwf	___flmul@b+2
   782  074D  30ED               	movlw	237
   783  074E  00AB               	movwf	___flmul@b+1
   784  074F  3091               	movlw	145
   785  0750  00AA               	movwf	___flmul@b
   786  0751  120A  118A  201A  120A  118A  	fcall	___flmul
   787  0756  1283               	bcf	3,5	;RP0=0, select bank0
   788  0757  1303               	bcf	3,6	;RP1=0, select bank0
   789  0758  082D               	movf	?___flmul+3,w
   790  0759  00C7               	movwf	___flsub@a+3
   791  075A  082C               	movf	?___flmul+2,w
   792  075B  00C6               	movwf	___flsub@a+2
   793  075C  082B               	movf	?___flmul+1,w
   794  075D  00C5               	movwf	___flsub@a+1
   795  075E  082A               	movf	?___flmul,w
   796  075F  00C4               	movwf	___flsub@a
   797  0760  120A  158A  26E4  120A  118A  	fcall	___flsub
   798  0765  1283               	bcf	3,5	;RP0=0, select bank0
   799  0766  1303               	bcf	3,6	;RP1=0, select bank0
   800  0767  0847               	movf	?___flsub+3,w
   801  0768  00CF               	movwf	___fltol@f1+3
   802  0769  0846               	movf	?___flsub+2,w
   803  076A  00CE               	movwf	___fltol@f1+2
   804  076B  0845               	movf	?___flsub+1,w
   805  076C  00CD               	movwf	___fltol@f1+1
   806  076D  0844               	movf	?___flsub,w
   807  076E  00CC               	movwf	___fltol@f1
   808  076F  120A  118A  277E  120A  118A  	fcall	___fltol
   809  0774  1283               	bcf	3,5	;RP0=0, select bank0
   810  0775  1303               	bcf	3,6	;RP1=0, select bank0
   811  0776  084C               	movf	?___fltol,w
   812  0777  00D7               	movwf	??_main
   813  0778  0857               	movf	??_main,w
   814  0779  00F9               	movwf	_tnk
   815  077A  2ED0               	goto	l2167
   816  077B  120A  118A  280C   	ljmp	start
   817  077E                     __end_of_main:
   818                           
   819                           	psect	text1
   820  0F31                     __ptext1:	
   821 ;; *************** function _setup *****************
   822 ;; Defined at:
   823 ;;		line 124 in file "P1 Slave3 HC-SR04.c"
   824 ;; Parameters:    Size  Location     Type
   825 ;;		None
   826 ;; Auto vars:     Size  Location     Type
   827 ;;		None
   828 ;; Return value:  Size  Location     Type
   829 ;;                  1    wreg      void 
   830 ;; Registers used:
   831 ;;		wreg, status,2, status,0, pclath, cstack
   832 ;; Tracked objects:
   833 ;;		On entry : 0/0
   834 ;;		On exit  : 0/0
   835 ;;		Unchanged: 0/0
   836 ;; Data sizes:     COMMON   BANK0   BANK1   BANK3   BANK2
   837 ;;      Params:         0       0       0       0       0
   838 ;;      Locals:         0       0       0       0       0
   839 ;;      Temps:          0       0       0       0       0
   840 ;;      Totals:         0       0       0       0       0
   841 ;;Total ram usage:        0 bytes
   842 ;; Hardware stack levels used: 1
   843 ;; Hardware stack levels required when called: 2
   844 ;; This function calls:
   845 ;;		_I2C_Slave_Init
   846 ;; This function is called by:
   847 ;;		_main
   848 ;; This function uses a non-reentrant model
   849 ;;
   850                           
   851                           
   852                           ;psect for function _setup
   853  0F31                     _setup:
   854  0F31                     l1585:	
   855                           ;incstack = 0
   856                           ; Regs used in _setup: [wreg+status,2+status,0+pclath+cstack]
   857                           
   858                           
   859                           ;P1 Slave3 HC-SR04.c: 126:     ANSELH = 0x00;
   860  0F31  1683               	bsf	3,5	;RP0=1, select bank3
   861  0F32  1703               	bsf	3,6	;RP1=1, select bank3
   862  0F33  0189               	clrf	9	;volatile
   863                           
   864                           ;P1 Slave3 HC-SR04.c: 127:     ANSEL = 0x00;
   865  0F34  0188               	clrf	8	;volatile
   866                           
   867                           ;P1 Slave3 HC-SR04.c: 129:     TRISA = 0x00;
   868  0F35  1683               	bsf	3,5	;RP0=1, select bank1
   869  0F36  1303               	bcf	3,6	;RP1=0, select bank1
   870  0F37  0185               	clrf	5	;volatile
   871  0F38                     l1587:
   872                           
   873                           ;P1 Slave3 HC-SR04.c: 130:     TRISB = 0x02;
   874  0F38  3002               	movlw	2
   875  0F39  0086               	movwf	6	;volatile
   876  0F3A                     l1589:
   877                           
   878                           ;P1 Slave3 HC-SR04.c: 131:     TRISC = 0x08;
   879  0F3A  3008               	movlw	8
   880  0F3B  0087               	movwf	7	;volatile
   881                           
   882                           ;P1 Slave3 HC-SR04.c: 132:     TRISD = 0x00;
   883  0F3C  0188               	clrf	8	;volatile
   884                           
   885                           ;P1 Slave3 HC-SR04.c: 133:     TRISE = 0x00;
   886  0F3D  0189               	clrf	9	;volatile
   887                           
   888                           ;P1 Slave3 HC-SR04.c: 135:     PORTA = 0x00;
   889  0F3E  1283               	bcf	3,5	;RP0=0, select bank0
   890  0F3F  1303               	bcf	3,6	;RP1=0, select bank0
   891  0F40  0185               	clrf	5	;volatile
   892                           
   893                           ;P1 Slave3 HC-SR04.c: 136:     PORTB = 0x00;
   894  0F41  0186               	clrf	6	;volatile
   895                           
   896                           ;P1 Slave3 HC-SR04.c: 137:     PORTC = 0x00;
   897  0F42  0187               	clrf	7	;volatile
   898                           
   899                           ;P1 Slave3 HC-SR04.c: 138:     PORTD = 0x00;
   900  0F43  0188               	clrf	8	;volatile
   901                           
   902                           ;P1 Slave3 HC-SR04.c: 139:     PORTE = 0x00;
   903  0F44  0189               	clrf	9	;volatile
   904  0F45                     l1591:
   905                           
   906                           ;P1 Slave3 HC-SR04.c: 142:     OSCCONbits.IRCF = 0b111;
   907  0F45  3070               	movlw	112
   908  0F46  1683               	bsf	3,5	;RP0=1, select bank1
   909  0F47  1303               	bcf	3,6	;RP1=0, select bank1
   910  0F48  048F               	iorwf	15,f	;volatile
   911  0F49                     l1593:
   912                           
   913                           ;P1 Slave3 HC-SR04.c: 143:     OSCCONbits.SCS = 1;
   914  0F49  140F               	bsf	15,0	;volatile
   915  0F4A                     l1595:
   916                           
   917                           ;P1 Slave3 HC-SR04.c: 146:     T1CONbits.TMR1GE = 0;
   918  0F4A  1283               	bcf	3,5	;RP0=0, select bank0
   919  0F4B  1303               	bcf	3,6	;RP1=0, select bank0
   920  0F4C  1310               	bcf	16,6	;volatile
   921  0F4D                     l1597:
   922                           
   923                           ;P1 Slave3 HC-SR04.c: 147:     T1CONbits.TMR1CS = 0;
   924  0F4D  1090               	bcf	16,1	;volatile
   925  0F4E                     l1599:
   926                           
   927                           ;P1 Slave3 HC-SR04.c: 148:     T1CONbits.T1CKPS = 0b01;
   928  0F4E  0810               	movf	16,w	;volatile
   929  0F4F  39CF               	andlw	-49
   930  0F50  3810               	iorlw	16
   931  0F51  0090               	movwf	16	;volatile
   932  0F52                     l1601:
   933                           
   934                           ;P1 Slave3 HC-SR04.c: 151:     INTCONbits.GIE = 1;
   935  0F52  178B               	bsf	11,7	;volatile
   936  0F53                     l1603:
   937                           
   938                           ;P1 Slave3 HC-SR04.c: 152:     INTCONbits.PEIE = 1;
   939  0F53  170B               	bsf	11,6	;volatile
   940  0F54                     l1605:
   941                           
   942                           ;P1 Slave3 HC-SR04.c: 153:     I2C_Slave_Init(0x80);
   943  0F54  3080               	movlw	128
   944  0F55  120A  158A  26CA  120A  158A  	fcall	_I2C_Slave_Init
   945  0F5A                     l151:
   946  0F5A  0008               	return
   947  0F5B                     __end_of_setup:
   948                           
   949                           	psect	text2
   950  0ECA                     __ptext2:	
   951 ;; *************** function _I2C_Slave_Init *****************
   952 ;; Defined at:
   953 ;;		line 93 in file "I2C.c"
   954 ;; Parameters:    Size  Location     Type
   955 ;;  address         1    wreg     unsigned char 
   956 ;; Auto vars:     Size  Location     Type
   957 ;;  address         1    3[COMMON] unsigned char 
   958 ;; Return value:  Size  Location     Type
   959 ;;                  1    wreg      void 
   960 ;; Registers used:
   961 ;;		wreg
   962 ;; Tracked objects:
   963 ;;		On entry : 0/0
   964 ;;		On exit  : 0/0
   965 ;;		Unchanged: 0/0
   966 ;; Data sizes:     COMMON   BANK0   BANK1   BANK3   BANK2
   967 ;;      Params:         0       0       0       0       0
   968 ;;      Locals:         1       0       0       0       0
   969 ;;      Temps:          0       0       0       0       0
   970 ;;      Totals:         1       0       0       0       0
   971 ;;Total ram usage:        1 bytes
   972 ;; Hardware stack levels used: 1
   973 ;; Hardware stack levels required when called: 1
   974 ;; This function calls:
   975 ;;		Nothing
   976 ;; This function is called by:
   977 ;;		_setup
   978 ;; This function uses a non-reentrant model
   979 ;;
   980                           
   981                           
   982                           ;psect for function _I2C_Slave_Init
   983  0ECA                     _I2C_Slave_Init:
   984                           
   985                           ;incstack = 0
   986                           ; Regs used in _I2C_Slave_Init: [wreg]
   987                           ;I2C_Slave_Init@address stored from wreg
   988  0ECA  00F3               	movwf	I2C_Slave_Init@address
   989  0ECB                     l1363:
   990                           
   991                           ;I2C.c: 93: void I2C_Slave_Init(uint8_t address);I2C.c: 94: {;I2C.c: 95:     SSPADD = ad
      +                          dress;
   992  0ECB  0873               	movf	I2C_Slave_Init@address,w
   993  0ECC  1683               	bsf	3,5	;RP0=1, select bank1
   994  0ECD  1303               	bcf	3,6	;RP1=0, select bank1
   995  0ECE  0093               	movwf	19	;volatile
   996                           
   997                           ;I2C.c: 96:     SSPCON = 0x36;
   998  0ECF  3036               	movlw	54
   999  0ED0  1283               	bcf	3,5	;RP0=0, select bank0
  1000  0ED1  1303               	bcf	3,6	;RP1=0, select bank0
  1001  0ED2  0094               	movwf	20	;volatile
  1002                           
  1003                           ;I2C.c: 97:     SSPSTAT = 0x80;
  1004  0ED3  3080               	movlw	128
  1005  0ED4  1683               	bsf	3,5	;RP0=1, select bank1
  1006  0ED5  1303               	bcf	3,6	;RP1=0, select bank1
  1007  0ED6  0094               	movwf	20	;volatile
  1008                           
  1009                           ;I2C.c: 98:     SSPCON2 = 0x01;
  1010  0ED7  3001               	movlw	1
  1011  0ED8  0091               	movwf	17	;volatile
  1012  0ED9                     l1365:
  1013                           
  1014                           ;I2C.c: 99:     TRISC3 = 1;
  1015  0ED9  1587               	bsf	7,3	;volatile
  1016  0EDA                     l1367:
  1017                           
  1018                           ;I2C.c: 100:     TRISC4 = 1;
  1019  0EDA  1607               	bsf	7,4	;volatile
  1020  0EDB                     l1369:
  1021                           
  1022                           ;I2C.c: 101:     GIE = 1;
  1023  0EDB  178B               	bsf	11,7	;volatile
  1024  0EDC                     l1371:
  1025                           
  1026                           ;I2C.c: 102:     PEIE = 1;
  1027  0EDC  170B               	bsf	11,6	;volatile
  1028  0EDD                     l1373:
  1029                           
  1030                           ;I2C.c: 103:     SSPIF = 0;
  1031  0EDD  1283               	bcf	3,5	;RP0=0, select bank0
  1032  0EDE  1303               	bcf	3,6	;RP1=0, select bank0
  1033  0EDF  118C               	bcf	12,3	;volatile
  1034  0EE0                     l1375:
  1035                           
  1036                           ;I2C.c: 104:     SSPIE = 1;
  1037  0EE0  1683               	bsf	3,5	;RP0=1, select bank1
  1038  0EE1  1303               	bcf	3,6	;RP1=0, select bank1
  1039  0EE2  158C               	bsf	12,3	;volatile
  1040  0EE3                     l55:
  1041  0EE3  0008               	return
  1042  0EE4                     __end_of_I2C_Slave_Init:
  1043                           
  1044                           	psect	text3
  1045  0EBC                     __ptext3:	
  1046 ;; *************** function _pulseOut *****************
  1047 ;; Defined at:
  1048 ;;		line 156 in file "P1 Slave3 HC-SR04.c"
  1049 ;; Parameters:    Size  Location     Type
  1050 ;;		None
  1051 ;; Auto vars:     Size  Location     Type
  1052 ;;		None
  1053 ;; Return value:  Size  Location     Type
  1054 ;;                  1    wreg      void 
  1055 ;; Registers used:
  1056 ;;		wreg, status,2
  1057 ;; Tracked objects:
  1058 ;;		On entry : 0/0
  1059 ;;		On exit  : 0/0
  1060 ;;		Unchanged: 0/0
  1061 ;; Data sizes:     COMMON   BANK0   BANK1   BANK3   BANK2
  1062 ;;      Params:         0       0       0       0       0
  1063 ;;      Locals:         0       0       0       0       0
  1064 ;;      Temps:          1       0       0       0       0
  1065 ;;      Totals:         1       0       0       0       0
  1066 ;;Total ram usage:        1 bytes
  1067 ;; Hardware stack levels used: 1
  1068 ;; Hardware stack levels required when called: 1
  1069 ;; This function calls:
  1070 ;;		Nothing
  1071 ;; This function is called by:
  1072 ;;		_main
  1073 ;; This function uses a non-reentrant model
  1074 ;;
  1075                           
  1076                           
  1077                           ;psect for function _pulseOut
  1078  0EBC                     _pulseOut:
  1079  0EBC                     l1607:	
  1080                           ;incstack = 0
  1081                           ; Regs used in _pulseOut: [wreg+status,2]
  1082                           
  1083                           
  1084                           ;P1 Slave3 HC-SR04.c: 157:     RB0 = 1;
  1085  0EBC  1283               	bcf	3,5	;RP0=0, select bank0
  1086  0EBD  1303               	bcf	3,6	;RP1=0, select bank0
  1087  0EBE  1406               	bsf	6,0	;volatile
  1088  0EBF                     l1609:
  1089                           
  1090                           ;P1 Slave3 HC-SR04.c: 158:     _delay((unsigned long)((15)*(8000000/4000000.0)));
  1091  0EBF  3009               	movlw	9
  1092  0EC0  00F3               	movwf	??_pulseOut
  1093  0EC1                     u3277:
  1094  0EC1  0BF3               	decfsz	??_pulseOut,f
  1095  0EC2  2EC1               	goto	u3277
  1096  0EC3  2EC4               	nop2
  1097  0EC4                     l1611:
  1098                           
  1099                           ;P1 Slave3 HC-SR04.c: 159:     RB0 = 0;
  1100  0EC4  1283               	bcf	3,5	;RP0=0, select bank0
  1101  0EC5  1303               	bcf	3,6	;RP1=0, select bank0
  1102  0EC6  1006               	bcf	6,0	;volatile
  1103  0EC7                     l1613:
  1104                           
  1105                           ;P1 Slave3 HC-SR04.c: 160:     TMR1 = 0;
  1106  0EC7  018E               	clrf	14	;volatile
  1107  0EC8  018F               	clrf	15	;volatile
  1108  0EC9                     l154:
  1109  0EC9  0008               	return
  1110  0ECA                     __end_of_pulseOut:
  1111                           
  1112                           	psect	text4
  1113  0EAF                     __ptext4:	
  1114 ;; *************** function _pulseIn *****************
  1115 ;; Defined at:
  1116 ;;		line 163 in file "P1 Slave3 HC-SR04.c"
  1117 ;; Parameters:    Size  Location     Type
  1118 ;;		None
  1119 ;; Auto vars:     Size  Location     Type
  1120 ;;		None
  1121 ;; Return value:  Size  Location     Type
  1122 ;;                  1    wreg      void 
  1123 ;; Registers used:
  1124 ;;		None
  1125 ;; Tracked objects:
  1126 ;;		On entry : 0/0
  1127 ;;		On exit  : 0/0
  1128 ;;		Unchanged: 0/0
  1129 ;; Data sizes:     COMMON   BANK0   BANK1   BANK3   BANK2
  1130 ;;      Params:         0       0       0       0       0
  1131 ;;      Locals:         0       0       0       0       0
  1132 ;;      Temps:          0       0       0       0       0
  1133 ;;      Totals:         0       0       0       0       0
  1134 ;;Total ram usage:        0 bytes
  1135 ;; Hardware stack levels used: 1
  1136 ;; Hardware stack levels required when called: 1
  1137 ;; This function calls:
  1138 ;;		Nothing
  1139 ;; This function is called by:
  1140 ;;		_main
  1141 ;; This function uses a non-reentrant model
  1142 ;;
  1143                           
  1144                           
  1145                           ;psect for function _pulseIn
  1146  0EAF                     _pulseIn:
  1147  0EAF                     l1615:	
  1148                           ;incstack = 0
  1149                           ; Regs used in _pulseIn: []
  1150                           
  1151  0EAF                     l157:	
  1152                           ;P1 Slave3 HC-SR04.c: 164:     while (!RB1);
  1153                           
  1154  0EAF  1283               	bcf	3,5	;RP0=0, select bank0
  1155  0EB0  1303               	bcf	3,6	;RP1=0, select bank0
  1156  0EB1  1C86               	btfss	6,1	;volatile
  1157  0EB2  2EB4               	goto	u1841
  1158  0EB3  2EB5               	goto	u1840
  1159  0EB4                     u1841:
  1160  0EB4  2EAF               	goto	l157
  1161  0EB5                     u1840:
  1162  0EB5                     l159:
  1163                           
  1164                           ;P1 Slave3 HC-SR04.c: 165:     T1CONbits.TMR1ON = 1;
  1165  0EB5  1410               	bsf	16,0	;volatile
  1166  0EB6                     l160:	
  1167                           ;P1 Slave3 HC-SR04.c: 166:     while(RB1);
  1168                           
  1169  0EB6  1886               	btfsc	6,1	;volatile
  1170  0EB7  2EB9               	goto	u1851
  1171  0EB8  2EBA               	goto	u1850
  1172  0EB9                     u1851:
  1173  0EB9  2EB6               	goto	l160
  1174  0EBA                     u1850:
  1175  0EBA                     l162:
  1176                           
  1177                           ;P1 Slave3 HC-SR04.c: 167:     T1CONbits.TMR1ON = 0;
  1178  0EBA  1010               	bcf	16,0	;volatile
  1179  0EBB                     l163:
  1180  0EBB  0008               	return
  1181  0EBC                     __end_of_pulseIn:
  1182                           
  1183                           	psect	text5
  1184  060B                     __ptext5:	
  1185 ;; *************** function ___xxtofl *****************
  1186 ;; Defined at:
  1187 ;;		line 10 in file "C:\Program Files\Microchip\xc8\v2.32\pic\sources\c90\common\xxtofl.c"
  1188 ;; Parameters:    Size  Location     Type
  1189 ;;  sign            1    wreg     unsigned char 
  1190 ;;  val             4    3[COMMON] long 
  1191 ;; Auto vars:     Size  Location     Type
  1192 ;;  sign            1    4[BANK0 ] unsigned char 
  1193 ;;  arg             4    6[BANK0 ] unsigned long 
  1194 ;;  exp             1    5[BANK0 ] unsigned char 
  1195 ;; Return value:  Size  Location     Type
  1196 ;;                  4    3[COMMON] unsigned char 
  1197 ;; Registers used:
  1198 ;;		wreg, status,2, status,0
  1199 ;; Tracked objects:
  1200 ;;		On entry : 0/0
  1201 ;;		On exit  : 0/0
  1202 ;;		Unchanged: 0/0
  1203 ;; Data sizes:     COMMON   BANK0   BANK1   BANK3   BANK2
  1204 ;;      Params:         4       0       0       0       0
  1205 ;;      Locals:         0       6       0       0       0
  1206 ;;      Temps:          0       4       0       0       0
  1207 ;;      Totals:         4      10       0       0       0
  1208 ;;Total ram usage:       14 bytes
  1209 ;; Hardware stack levels used: 1
  1210 ;; Hardware stack levels required when called: 1
  1211 ;; This function calls:
  1212 ;;		Nothing
  1213 ;; This function is called by:
  1214 ;;		_main
  1215 ;; This function uses a non-reentrant model
  1216 ;;
  1217                           
  1218                           
  1219                           ;psect for function ___xxtofl
  1220  060B                     ___xxtofl:
  1221                           
  1222                           ;incstack = 0
  1223                           ; Regs used in ___xxtofl: [wreg+status,2+status,0]
  1224                           ;___xxtofl@sign stored from wreg
  1225  060B  1283               	bcf	3,5	;RP0=0, select bank0
  1226  060C  1303               	bcf	3,6	;RP1=0, select bank0
  1227  060D  00A4               	movwf	___xxtofl@sign
  1228  060E                     l2119:
  1229  060E  0824               	movf	___xxtofl@sign,w
  1230  060F  1903               	btfsc	3,2
  1231  0610  2E12               	goto	u3091
  1232  0611  2E13               	goto	u3090
  1233  0612                     u3091:
  1234  0612  2E27               	goto	l2125
  1235  0613                     u3090:
  1236  0613                     l2121:
  1237  0613  1FF6               	btfss	___xxtofl@val+3,7
  1238  0614  2E16               	goto	u3101
  1239  0615  2E17               	goto	u3100
  1240  0616                     u3101:
  1241  0616  2E27               	goto	l2125
  1242  0617                     u3100:
  1243  0617                     l2123:
  1244  0617  0973               	comf	___xxtofl@val,w
  1245  0618  00A6               	movwf	___xxtofl@arg
  1246  0619  0974               	comf	___xxtofl@val+1,w
  1247  061A  00A7               	movwf	___xxtofl@arg+1
  1248  061B  0975               	comf	___xxtofl@val+2,w
  1249  061C  00A8               	movwf	___xxtofl@arg+2
  1250  061D  0976               	comf	___xxtofl@val+3,w
  1251  061E  00A9               	movwf	___xxtofl@arg+3
  1252  061F  0AA6               	incf	___xxtofl@arg,f
  1253  0620  1903               	skipnz
  1254  0621  0AA7               	incf	___xxtofl@arg+1,f
  1255  0622  1903               	skipnz
  1256  0623  0AA8               	incf	___xxtofl@arg+2,f
  1257  0624  1903               	skipnz
  1258  0625  0AA9               	incf	___xxtofl@arg+3,f
  1259  0626  2E2F               	goto	l682
  1260  0627                     l2125:
  1261  0627  0876               	movf	___xxtofl@val+3,w
  1262  0628  00A9               	movwf	___xxtofl@arg+3
  1263  0629  0875               	movf	___xxtofl@val+2,w
  1264  062A  00A8               	movwf	___xxtofl@arg+2
  1265  062B  0874               	movf	___xxtofl@val+1,w
  1266  062C  00A7               	movwf	___xxtofl@arg+1
  1267  062D  0873               	movf	___xxtofl@val,w
  1268  062E  00A6               	movwf	___xxtofl@arg
  1269  062F                     l682:
  1270  062F  0876               	movf	___xxtofl@val+3,w
  1271  0630  0475               	iorwf	___xxtofl@val+2,w
  1272  0631  0474               	iorwf	___xxtofl@val+1,w
  1273  0632  0473               	iorwf	___xxtofl@val,w
  1274  0633  1D03               	skipz
  1275  0634  2E36               	goto	u3111
  1276  0635  2E37               	goto	u3110
  1277  0636                     u3111:
  1278  0636  2E40               	goto	l2131
  1279  0637                     u3110:
  1280  0637                     l2127:
  1281  0637  3000               	movlw	0
  1282  0638  00F6               	movwf	?___xxtofl+3
  1283  0639  3000               	movlw	0
  1284  063A  00F5               	movwf	?___xxtofl+2
  1285  063B  3000               	movlw	0
  1286  063C  00F4               	movwf	?___xxtofl+1
  1287  063D  3000               	movlw	0
  1288  063E  00F3               	movwf	?___xxtofl
  1289  063F  2EC6               	goto	l684
  1290  0640                     l2131:
  1291  0640  3096               	movlw	150
  1292  0641  00A0               	movwf	??___xxtofl
  1293  0642  0820               	movf	??___xxtofl,w
  1294  0643  00A5               	movwf	___xxtofl@exp
  1295  0644  2E52               	goto	l2135
  1296  0645                     l2133:
  1297  0645  3001               	movlw	1
  1298  0646  00A0               	movwf	??___xxtofl
  1299  0647  0820               	movf	??___xxtofl,w
  1300  0648  07A5               	addwf	___xxtofl@exp,f
  1301  0649  3001               	movlw	1
  1302  064A                     u3125:
  1303  064A  1003               	clrc
  1304  064B  0CA9               	rrf	___xxtofl@arg+3,f
  1305  064C  0CA8               	rrf	___xxtofl@arg+2,f
  1306  064D  0CA7               	rrf	___xxtofl@arg+1,f
  1307  064E  0CA6               	rrf	___xxtofl@arg,f
  1308  064F  3EFF               	addlw	-1
  1309  0650  1D03               	skipz
  1310  0651  2E4A               	goto	u3125
  1311  0652                     l2135:
  1312  0652  30FE               	movlw	254
  1313  0653  0529               	andwf	___xxtofl@arg+3,w
  1314  0654  1D03               	btfss	3,2
  1315  0655  2E57               	goto	u3131
  1316  0656  2E58               	goto	u3130
  1317  0657                     u3131:
  1318  0657  2E45               	goto	l2133
  1319  0658                     u3130:
  1320  0658  2E74               	goto	l688
  1321  0659                     l2137:
  1322  0659  3001               	movlw	1
  1323  065A  00A0               	movwf	??___xxtofl
  1324  065B  0820               	movf	??___xxtofl,w
  1325  065C  07A5               	addwf	___xxtofl@exp,f
  1326  065D                     l2139:
  1327  065D  3001               	movlw	1
  1328  065E  07A6               	addwf	___xxtofl@arg,f
  1329  065F  3000               	movlw	0
  1330  0660  1803               	skipnc
  1331  0661  3001               	movlw	1
  1332  0662  07A7               	addwf	___xxtofl@arg+1,f
  1333  0663  3000               	movlw	0
  1334  0664  1803               	skipnc
  1335  0665  3001               	movlw	1
  1336  0666  07A8               	addwf	___xxtofl@arg+2,f
  1337  0667  3000               	movlw	0
  1338  0668  1803               	skipnc
  1339  0669  3001               	movlw	1
  1340  066A  07A9               	addwf	___xxtofl@arg+3,f
  1341  066B                     l2141:
  1342  066B  3001               	movlw	1
  1343  066C                     u3145:
  1344  066C  1003               	clrc
  1345  066D  0CA9               	rrf	___xxtofl@arg+3,f
  1346  066E  0CA8               	rrf	___xxtofl@arg+2,f
  1347  066F  0CA7               	rrf	___xxtofl@arg+1,f
  1348  0670  0CA6               	rrf	___xxtofl@arg,f
  1349  0671  3EFF               	addlw	-1
  1350  0672  1D03               	skipz
  1351  0673  2E6C               	goto	u3145
  1352  0674                     l688:
  1353  0674  30FF               	movlw	255
  1354  0675  0529               	andwf	___xxtofl@arg+3,w
  1355  0676  1D03               	btfss	3,2
  1356  0677  2E79               	goto	u3151
  1357  0678  2E7A               	goto	u3150
  1358  0679                     u3151:
  1359  0679  2E59               	goto	l2137
  1360  067A                     u3150:
  1361  067A  2E86               	goto	l2145
  1362  067B                     l2143:
  1363  067B  3001               	movlw	1
  1364  067C  02A5               	subwf	___xxtofl@exp,f
  1365  067D  3001               	movlw	1
  1366  067E  00A0               	movwf	??___xxtofl
  1367  067F                     u3165:
  1368  067F  1003               	clrc
  1369  0680  0DA6               	rlf	___xxtofl@arg,f
  1370  0681  0DA7               	rlf	___xxtofl@arg+1,f
  1371  0682  0DA8               	rlf	___xxtofl@arg+2,f
  1372  0683  0DA9               	rlf	___xxtofl@arg+3,f
  1373  0684  0BA0               	decfsz	??___xxtofl,f
  1374  0685  2E7F               	goto	u3165
  1375  0686                     l2145:
  1376  0686  1BA8               	btfsc	___xxtofl@arg+2,7
  1377  0687  2E89               	goto	u3171
  1378  0688  2E8A               	goto	u3170
  1379  0689                     u3171:
  1380  0689  2E90               	goto	l695
  1381  068A                     u3170:
  1382  068A                     l2147:
  1383  068A  3002               	movlw	2
  1384  068B  0225               	subwf	___xxtofl@exp,w
  1385  068C  1803               	skipnc
  1386  068D  2E8F               	goto	u3181
  1387  068E  2E90               	goto	u3180
  1388  068F                     u3181:
  1389  068F  2E7B               	goto	l2143
  1390  0690                     u3180:
  1391  0690                     l695:
  1392  0690  1825               	btfsc	___xxtofl@exp,0
  1393  0691  2E93               	goto	u3191
  1394  0692  2E94               	goto	u3190
  1395  0693                     u3191:
  1396  0693  2E9C               	goto	l696
  1397  0694                     u3190:
  1398  0694                     l2149:
  1399  0694  30FF               	movlw	255
  1400  0695  05A6               	andwf	___xxtofl@arg,f
  1401  0696  30FF               	movlw	255
  1402  0697  05A7               	andwf	___xxtofl@arg+1,f
  1403  0698  307F               	movlw	127
  1404  0699  05A8               	andwf	___xxtofl@arg+2,f
  1405  069A  30FF               	movlw	255
  1406  069B  05A9               	andwf	___xxtofl@arg+3,f
  1407  069C                     l696:
  1408  069C  1003               	clrc
  1409  069D  0CA5               	rrf	___xxtofl@exp,f
  1410  069E                     l2151:
  1411  069E  0825               	movf	___xxtofl@exp,w
  1412  069F  00A0               	movwf	??___xxtofl
  1413  06A0  01A1               	clrf	??___xxtofl+1
  1414  06A1  01A2               	clrf	??___xxtofl+2
  1415  06A2  01A3               	clrf	??___xxtofl+3
  1416  06A3  3018               	movlw	24
  1417  06A4                     u3205:
  1418  06A4  1003               	clrc
  1419  06A5  0DA0               	rlf	??___xxtofl,f
  1420  06A6  0DA1               	rlf	??___xxtofl+1,f
  1421  06A7  0DA2               	rlf	??___xxtofl+2,f
  1422  06A8  0DA3               	rlf	??___xxtofl+3,f
  1423  06A9                     u3200:
  1424  06A9  3EFF               	addlw	-1
  1425  06AA  1D03               	skipz
  1426  06AB  2EA4               	goto	u3205
  1427  06AC  0820               	movf	??___xxtofl,w
  1428  06AD  04A6               	iorwf	___xxtofl@arg,f
  1429  06AE  0821               	movf	??___xxtofl+1,w
  1430  06AF  04A7               	iorwf	___xxtofl@arg+1,f
  1431  06B0  0822               	movf	??___xxtofl+2,w
  1432  06B1  04A8               	iorwf	___xxtofl@arg+2,f
  1433  06B2  0823               	movf	??___xxtofl+3,w
  1434  06B3  04A9               	iorwf	___xxtofl@arg+3,f
  1435  06B4                     l2153:
  1436  06B4  0824               	movf	___xxtofl@sign,w
  1437  06B5  1903               	btfsc	3,2
  1438  06B6  2EB8               	goto	u3211
  1439  06B7  2EB9               	goto	u3210
  1440  06B8                     u3211:
  1441  06B8  2EBE               	goto	l2159
  1442  06B9                     u3210:
  1443  06B9                     l2155:
  1444  06B9  1FF6               	btfss	___xxtofl@val+3,7
  1445  06BA  2EBC               	goto	u3221
  1446  06BB  2EBD               	goto	u3220
  1447  06BC                     u3221:
  1448  06BC  2EBE               	goto	l2159
  1449  06BD                     u3220:
  1450  06BD                     l2157:
  1451  06BD  17A9               	bsf	___xxtofl@arg+3,7
  1452  06BE                     l2159:
  1453  06BE  0829               	movf	___xxtofl@arg+3,w
  1454  06BF  00F6               	movwf	?___xxtofl+3
  1455  06C0  0828               	movf	___xxtofl@arg+2,w
  1456  06C1  00F5               	movwf	?___xxtofl+2
  1457  06C2  0827               	movf	___xxtofl@arg+1,w
  1458  06C3  00F4               	movwf	?___xxtofl+1
  1459  06C4  0826               	movf	___xxtofl@arg,w
  1460  06C5  00F3               	movwf	?___xxtofl
  1461  06C6                     l684:
  1462  06C6  0008               	return
  1463  06C7                     __end_of___xxtofl:
  1464                           
  1465                           	psect	text6
  1466  0F5B                     __ptext6:	
  1467 ;; *************** function ___lwdiv *****************
  1468 ;; Defined at:
  1469 ;;		line 5 in file "C:\Program Files\Microchip\xc8\v2.32\pic\sources\c90\common\lwdiv.c"
  1470 ;; Parameters:    Size  Location     Type
  1471 ;;  divisor         2    3[COMMON] unsigned int 
  1472 ;;  dividend        2    5[COMMON] unsigned int 
  1473 ;; Auto vars:     Size  Location     Type
  1474 ;;  quotient        2    1[BANK0 ] unsigned int 
  1475 ;;  counter         1    0[BANK0 ] unsigned char 
  1476 ;; Return value:  Size  Location     Type
  1477 ;;                  2    3[COMMON] unsigned int 
  1478 ;; Registers used:
  1479 ;;		wreg, status,2, status,0
  1480 ;; Tracked objects:
  1481 ;;		On entry : 0/0
  1482 ;;		On exit  : 0/0
  1483 ;;		Unchanged: 0/0
  1484 ;; Data sizes:     COMMON   BANK0   BANK1   BANK3   BANK2
  1485 ;;      Params:         4       0       0       0       0
  1486 ;;      Locals:         0       3       0       0       0
  1487 ;;      Temps:          1       0       0       0       0
  1488 ;;      Totals:         5       3       0       0       0
  1489 ;;Total ram usage:        8 bytes
  1490 ;; Hardware stack levels used: 1
  1491 ;; Hardware stack levels required when called: 1
  1492 ;; This function calls:
  1493 ;;		Nothing
  1494 ;; This function is called by:
  1495 ;;		_main
  1496 ;; This function uses a non-reentrant model
  1497 ;;
  1498                           
  1499                           
  1500                           ;psect for function ___lwdiv
  1501  0F5B                     ___lwdiv:
  1502  0F5B                     l2087:	
  1503                           ;incstack = 0
  1504                           ; Regs used in ___lwdiv: [wreg+status,2+status,0]
  1505                           
  1506  0F5B  1283               	bcf	3,5	;RP0=0, select bank0
  1507  0F5C  1303               	bcf	3,6	;RP1=0, select bank0
  1508  0F5D  01A1               	clrf	___lwdiv@quotient
  1509  0F5E  01A2               	clrf	___lwdiv@quotient+1
  1510  0F5F                     l2089:
  1511  0F5F  0873               	movf	___lwdiv@divisor,w
  1512  0F60  0474               	iorwf	___lwdiv@divisor+1,w
  1513  0F61  1903               	btfsc	3,2
  1514  0F62  2F64               	goto	u3021
  1515  0F63  2F65               	goto	u3020
  1516  0F64                     u3021:
  1517  0F64  2F9C               	goto	l2109
  1518  0F65                     u3020:
  1519  0F65                     l2091:
  1520  0F65  01A0               	clrf	___lwdiv@counter
  1521  0F66  0AA0               	incf	___lwdiv@counter,f
  1522  0F67  2F73               	goto	l2097
  1523  0F68                     l2093:
  1524  0F68  3001               	movlw	1
  1525  0F69                     u3035:
  1526  0F69  1003               	clrc
  1527  0F6A  0DF3               	rlf	___lwdiv@divisor,f
  1528  0F6B  0DF4               	rlf	___lwdiv@divisor+1,f
  1529  0F6C  3EFF               	addlw	-1
  1530  0F6D  1D03               	skipz
  1531  0F6E  2F69               	goto	u3035
  1532  0F6F                     l2095:
  1533  0F6F  3001               	movlw	1
  1534  0F70  00F7               	movwf	??___lwdiv
  1535  0F71  0877               	movf	??___lwdiv,w
  1536  0F72  07A0               	addwf	___lwdiv@counter,f
  1537  0F73                     l2097:
  1538  0F73  1FF4               	btfss	___lwdiv@divisor+1,7
  1539  0F74  2F76               	goto	u3041
  1540  0F75  2F77               	goto	u3040
  1541  0F76                     u3041:
  1542  0F76  2F68               	goto	l2093
  1543  0F77                     u3040:
  1544  0F77                     l2099:
  1545  0F77  3001               	movlw	1
  1546  0F78                     u3055:
  1547  0F78  1003               	clrc
  1548  0F79  0DA1               	rlf	___lwdiv@quotient,f
  1549  0F7A  0DA2               	rlf	___lwdiv@quotient+1,f
  1550  0F7B  3EFF               	addlw	-1
  1551  0F7C  1D03               	skipz
  1552  0F7D  2F78               	goto	u3055
  1553  0F7E  0874               	movf	___lwdiv@divisor+1,w
  1554  0F7F  0276               	subwf	___lwdiv@dividend+1,w
  1555  0F80  1D03               	skipz
  1556  0F81  2F84               	goto	u3065
  1557  0F82  0873               	movf	___lwdiv@divisor,w
  1558  0F83  0275               	subwf	___lwdiv@dividend,w
  1559  0F84                     u3065:
  1560  0F84  1C03               	skipc
  1561  0F85  2F87               	goto	u3061
  1562  0F86  2F88               	goto	u3060
  1563  0F87                     u3061:
  1564  0F87  2F8F               	goto	l2105
  1565  0F88                     u3060:
  1566  0F88                     l2101:
  1567  0F88  0873               	movf	___lwdiv@divisor,w
  1568  0F89  02F5               	subwf	___lwdiv@dividend,f
  1569  0F8A  0874               	movf	___lwdiv@divisor+1,w
  1570  0F8B  1C03               	skipc
  1571  0F8C  03F6               	decf	___lwdiv@dividend+1,f
  1572  0F8D  02F6               	subwf	___lwdiv@dividend+1,f
  1573  0F8E                     l2103:
  1574  0F8E  1421               	bsf	___lwdiv@quotient,0
  1575  0F8F                     l2105:
  1576  0F8F  3001               	movlw	1
  1577  0F90                     u3075:
  1578  0F90  1003               	clrc
  1579  0F91  0CF4               	rrf	___lwdiv@divisor+1,f
  1580  0F92  0CF3               	rrf	___lwdiv@divisor,f
  1581  0F93  3EFF               	addlw	-1
  1582  0F94  1D03               	skipz
  1583  0F95  2F90               	goto	u3075
  1584  0F96                     l2107:
  1585  0F96  3001               	movlw	1
  1586  0F97  02A0               	subwf	___lwdiv@counter,f
  1587  0F98  1D03               	btfss	3,2
  1588  0F99  2F9B               	goto	u3081
  1589  0F9A  2F9C               	goto	u3080
  1590  0F9B                     u3081:
  1591  0F9B  2F77               	goto	l2099
  1592  0F9C                     u3080:
  1593  0F9C                     l2109:
  1594  0F9C  0822               	movf	___lwdiv@quotient+1,w
  1595  0F9D  00F4               	movwf	?___lwdiv+1
  1596  0F9E  0821               	movf	___lwdiv@quotient,w
  1597  0F9F  00F3               	movwf	?___lwdiv
  1598  0FA0                     l521:
  1599  0FA0  0008               	return
  1600  0FA1                     __end_of___lwdiv:
  1601                           
  1602                           	psect	text7
  1603  077E                     __ptext7:	
  1604 ;; *************** function ___fltol *****************
  1605 ;; Defined at:
  1606 ;;		line 43 in file "C:\Program Files\Microchip\xc8\v2.32\pic\sources\c90\common\fltol.c"
  1607 ;; Parameters:    Size  Location     Type
  1608 ;;  f1              4   44[BANK0 ] unsigned int 
  1609 ;; Auto vars:     Size  Location     Type
  1610 ;;  exp1            1   54[BANK0 ] unsigned char 
  1611 ;;  sign1           1   53[BANK0 ] unsigned char 
  1612 ;; Return value:  Size  Location     Type
  1613 ;;                  4   44[BANK0 ] long 
  1614 ;; Registers used:
  1615 ;;		wreg, status,2, status,0
  1616 ;; Tracked objects:
  1617 ;;		On entry : 0/0
  1618 ;;		On exit  : 0/0
  1619 ;;		Unchanged: 0/0
  1620 ;; Data sizes:     COMMON   BANK0   BANK1   BANK3   BANK2
  1621 ;;      Params:         0       4       0       0       0
  1622 ;;      Locals:         0       2       0       0       0
  1623 ;;      Temps:          0       5       0       0       0
  1624 ;;      Totals:         0      11       0       0       0
  1625 ;;Total ram usage:       11 bytes
  1626 ;; Hardware stack levels used: 1
  1627 ;; Hardware stack levels required when called: 1
  1628 ;; This function calls:
  1629 ;;		Nothing
  1630 ;; This function is called by:
  1631 ;;		_main
  1632 ;; This function uses a non-reentrant model
  1633 ;;
  1634                           
  1635                           
  1636                           ;psect for function ___fltol
  1637  077E                     ___fltol:
  1638  077E                     l1617:	
  1639                           ;incstack = 0
  1640                           ; Regs used in ___fltol: [wreg+status,2+status,0]
  1641                           
  1642  077E  1003               	clrc
  1643  077F  1283               	bcf	3,5	;RP0=0, select bank0
  1644  0780  1303               	bcf	3,6	;RP1=0, select bank0
  1645  0781  0D4E               	rlf	___fltol@f1+2,w
  1646  0782  0D4F               	rlf	___fltol@f1+3,w
  1647  0783  00D0               	movwf	??___fltol
  1648  0784  0850               	movf	??___fltol,w
  1649  0785  00D6               	movwf	___fltol@exp1
  1650  0786  0856               	movf	___fltol@exp1,w
  1651  0787  1D03               	btfss	3,2
  1652  0788  2F8A               	goto	u1861
  1653  0789  2F8B               	goto	u1860
  1654  078A                     u1861:
  1655  078A  2F94               	goto	l1623
  1656  078B                     u1860:
  1657  078B                     l1619:
  1658  078B  3000               	movlw	0
  1659  078C  00CF               	movwf	?___fltol+3
  1660  078D  3000               	movlw	0
  1661  078E  00CE               	movwf	?___fltol+2
  1662  078F  3000               	movlw	0
  1663  0790  00CD               	movwf	?___fltol+1
  1664  0791  3000               	movlw	0
  1665  0792  00CC               	movwf	?___fltol
  1666  0793  2FF9               	goto	l435
  1667  0794                     l1623:
  1668  0794  084C               	movf	___fltol@f1,w
  1669  0795  00D0               	movwf	??___fltol
  1670  0796  084D               	movf	___fltol@f1+1,w
  1671  0797  00D1               	movwf	??___fltol+1
  1672  0798  084E               	movf	___fltol@f1+2,w
  1673  0799  00D2               	movwf	??___fltol+2
  1674  079A  084F               	movf	___fltol@f1+3,w
  1675  079B  00D3               	movwf	??___fltol+3
  1676  079C  301F               	movlw	31
  1677  079D                     u1875:
  1678  079D  1003               	clrc
  1679  079E  0CD3               	rrf	??___fltol+3,f
  1680  079F  0CD2               	rrf	??___fltol+2,f
  1681  07A0  0CD1               	rrf	??___fltol+1,f
  1682  07A1  0CD0               	rrf	??___fltol,f
  1683  07A2                     u1870:
  1684  07A2  3EFF               	addlw	-1
  1685  07A3  1D03               	skipz
  1686  07A4  2F9D               	goto	u1875
  1687  07A5  0850               	movf	??___fltol,w
  1688  07A6  00D4               	movwf	??___fltol+4
  1689  07A7  0854               	movf	??___fltol+4,w
  1690  07A8  00D5               	movwf	___fltol@sign1
  1691  07A9                     l1625:
  1692  07A9  17CE               	bsf	___fltol@f1+2,7
  1693  07AA                     l1627:
  1694  07AA  30FF               	movlw	255
  1695  07AB  05CC               	andwf	___fltol@f1,f
  1696  07AC  30FF               	movlw	255
  1697  07AD  05CD               	andwf	___fltol@f1+1,f
  1698  07AE  30FF               	movlw	255
  1699  07AF  05CE               	andwf	___fltol@f1+2,f
  1700  07B0  3000               	movlw	0
  1701  07B1  05CF               	andwf	___fltol@f1+3,f
  1702  07B2                     l1629:
  1703  07B2  3096               	movlw	150
  1704  07B3  02D6               	subwf	___fltol@exp1,f
  1705  07B4                     l1631:
  1706  07B4  1FD6               	btfss	___fltol@exp1,7
  1707  07B5  2FB7               	goto	u1881
  1708  07B6  2FB8               	goto	u1880
  1709  07B7                     u1881:
  1710  07B7  2FD2               	goto	l1641
  1711  07B8                     u1880:
  1712  07B8                     l1633:
  1713  07B8  0856               	movf	___fltol@exp1,w
  1714  07B9  3A80               	xorlw	128
  1715  07BA  3E97               	addlw	151
  1716  07BB  1803               	skipnc
  1717  07BC  2FBE               	goto	u1891
  1718  07BD  2FBF               	goto	u1890
  1719  07BE                     u1891:
  1720  07BE  2FC0               	goto	l1639
  1721  07BF                     u1890:
  1722  07BF  2F8B               	goto	l1619
  1723  07C0                     l1639:
  1724  07C0  3001               	movlw	1
  1725  07C1                     u1905:
  1726  07C1  1003               	clrc
  1727  07C2  0CCF               	rrf	___fltol@f1+3,f
  1728  07C3  0CCE               	rrf	___fltol@f1+2,f
  1729  07C4  0CCD               	rrf	___fltol@f1+1,f
  1730  07C5  0CCC               	rrf	___fltol@f1,f
  1731  07C6  3EFF               	addlw	-1
  1732  07C7  1D03               	skipz
  1733  07C8  2FC1               	goto	u1905
  1734  07C9  3001               	movlw	1
  1735  07CA  00D0               	movwf	??___fltol
  1736  07CB  0850               	movf	??___fltol,w
  1737  07CC  07D6               	addwf	___fltol@exp1,f
  1738  07CD  1D03               	btfss	3,2
  1739  07CE  2FD0               	goto	u1911
  1740  07CF  2FD1               	goto	u1910
  1741  07D0                     u1911:
  1742  07D0  2FC0               	goto	l1639
  1743  07D1                     u1910:
  1744  07D1  2FE9               	goto	l1649
  1745  07D2                     l1641:
  1746  07D2  3020               	movlw	32
  1747  07D3  0256               	subwf	___fltol@exp1,w
  1748  07D4  1C03               	skipc
  1749  07D5  2FD7               	goto	u1921
  1750  07D6  2FD8               	goto	u1920
  1751  07D7                     u1921:
  1752  07D7  2FE4               	goto	l442
  1753  07D8                     u1920:
  1754  07D8  2F8B               	goto	l1619
  1755  07D9                     l1647:
  1756  07D9  3001               	movlw	1
  1757  07DA  00D0               	movwf	??___fltol
  1758  07DB                     u1935:
  1759  07DB  1003               	clrc
  1760  07DC  0DCC               	rlf	___fltol@f1,f
  1761  07DD  0DCD               	rlf	___fltol@f1+1,f
  1762  07DE  0DCE               	rlf	___fltol@f1+2,f
  1763  07DF  0DCF               	rlf	___fltol@f1+3,f
  1764  07E0  0BD0               	decfsz	??___fltol,f
  1765  07E1  2FDB               	goto	u1935
  1766  07E2  3001               	movlw	1
  1767  07E3  02D6               	subwf	___fltol@exp1,f
  1768  07E4                     l442:
  1769  07E4  0856               	movf	___fltol@exp1,w
  1770  07E5  1D03               	btfss	3,2
  1771  07E6  2FE8               	goto	u1941
  1772  07E7  2FE9               	goto	u1940
  1773  07E8                     u1941:
  1774  07E8  2FD9               	goto	l1647
  1775  07E9                     u1940:
  1776  07E9                     l1649:
  1777  07E9  0855               	movf	___fltol@sign1,w
  1778  07EA  1903               	btfsc	3,2
  1779  07EB  2FED               	goto	u1951
  1780  07EC  2FEE               	goto	u1950
  1781  07ED                     u1951:
  1782  07ED  2FF9               	goto	l445
  1783  07EE                     u1950:
  1784  07EE                     l1651:
  1785  07EE  09CC               	comf	___fltol@f1,f
  1786  07EF  09CD               	comf	___fltol@f1+1,f
  1787  07F0  09CE               	comf	___fltol@f1+2,f
  1788  07F1  09CF               	comf	___fltol@f1+3,f
  1789  07F2  0ACC               	incf	___fltol@f1,f
  1790  07F3  1903               	skipnz
  1791  07F4  0ACD               	incf	___fltol@f1+1,f
  1792  07F5  1903               	skipnz
  1793  07F6  0ACE               	incf	___fltol@f1+2,f
  1794  07F7  1903               	skipnz
  1795  07F8  0ACF               	incf	___fltol@f1+3,f
  1796  07F9                     l445:
  1797  07F9                     l435:
  1798  07F9  0008               	return
  1799  07FA                     __end_of___fltol:
  1800                           
  1801                           	psect	text8
  1802  0EE4                     __ptext8:	
  1803 ;; *************** function ___flsub *****************
  1804 ;; Defined at:
  1805 ;;		line 242 in file "C:\Program Files\Microchip\xc8\v2.32\pic\sources\c90\common\sprcadd.c"
  1806 ;; Parameters:    Size  Location     Type
  1807 ;;  a               4   36[BANK0 ] long 
  1808 ;;  b               4   40[BANK0 ] long 
  1809 ;; Auto vars:     Size  Location     Type
  1810 ;;		None
  1811 ;; Return value:  Size  Location     Type
  1812 ;;                  4   36[BANK0 ] long 
  1813 ;; Registers used:
  1814 ;;		wreg, status,2, status,0, btemp+1, pclath, cstack
  1815 ;; Tracked objects:
  1816 ;;		On entry : 0/0
  1817 ;;		On exit  : 0/0
  1818 ;;		Unchanged: 0/0
  1819 ;; Data sizes:     COMMON   BANK0   BANK1   BANK3   BANK2
  1820 ;;      Params:         0       8       0       0       0
  1821 ;;      Locals:         0       0       0       0       0
  1822 ;;      Temps:          0       0       0       0       0
  1823 ;;      Totals:         0       8       0       0       0
  1824 ;;Total ram usage:        8 bytes
  1825 ;; Hardware stack levels used: 1
  1826 ;; Hardware stack levels required when called: 2
  1827 ;; This function calls:
  1828 ;;		___fladd
  1829 ;; This function is called by:
  1830 ;;		_main
  1831 ;; This function uses a non-reentrant model
  1832 ;;
  1833                           
  1834                           
  1835                           ;psect for function ___flsub
  1836  0EE4                     ___flsub:
  1837  0EE4                     l2113:	
  1838                           ;incstack = 0
  1839                           ; Regs used in ___flsub: [wreg+status,2+status,0+btemp+1+pclath+cstack]
  1840                           
  1841  0EE4  3080               	movlw	128
  1842  0EE5  1283               	bcf	3,5	;RP0=0, select bank0
  1843  0EE6  1303               	bcf	3,6	;RP1=0, select bank0
  1844  0EE7  06C7               	xorwf	___flsub@a+3,f
  1845  0EE8                     l2115:
  1846  0EE8  084B               	movf	___flsub@b+3,w
  1847  0EE9  00A3               	movwf	___fladd@b+3
  1848  0EEA  084A               	movf	___flsub@b+2,w
  1849  0EEB  00A2               	movwf	___fladd@b+2
  1850  0EEC  0849               	movf	___flsub@b+1,w
  1851  0EED  00A1               	movwf	___fladd@b+1
  1852  0EEE  0848               	movf	___flsub@b,w
  1853  0EEF  00A0               	movwf	___fladd@b
  1854  0EF0  0847               	movf	___flsub@a+3,w
  1855  0EF1  00A7               	movwf	___fladd@a+3
  1856  0EF2  0846               	movf	___flsub@a+2,w
  1857  0EF3  00A6               	movwf	___fladd@a+2
  1858  0EF4  0845               	movf	___flsub@a+1,w
  1859  0EF5  00A5               	movwf	___fladd@a+1
  1860  0EF6  0844               	movf	___flsub@a,w
  1861  0EF7  00A4               	movwf	___fladd@a
  1862  0EF8  120A  118A  237B  120A  158A  	fcall	___fladd
  1863  0EFD  1283               	bcf	3,5	;RP0=0, select bank0
  1864  0EFE  1303               	bcf	3,6	;RP1=0, select bank0
  1865  0EFF  0823               	movf	?___fladd+3,w
  1866  0F00  00C7               	movwf	?___flsub+3
  1867  0F01  0822               	movf	?___fladd+2,w
  1868  0F02  00C6               	movwf	?___flsub+2
  1869  0F03  0821               	movf	?___fladd+1,w
  1870  0F04  00C5               	movwf	?___flsub+1
  1871  0F05  0820               	movf	?___fladd,w
  1872  0F06  00C4               	movwf	?___flsub
  1873  0F07                     l588:
  1874  0F07  0008               	return
  1875  0F08                     __end_of___flsub:
  1876                           
  1877                           	psect	text9
  1878  037B                     __ptext9:	
  1879 ;; *************** function ___fladd *****************
  1880 ;; Defined at:
  1881 ;;		line 10 in file "C:\Program Files\Microchip\xc8\v2.32\pic\sources\c90\common\sprcadd.c"
  1882 ;; Parameters:    Size  Location     Type
  1883 ;;  b               4    0[BANK0 ] long 
  1884 ;;  a               4    4[BANK0 ] long 
  1885 ;; Auto vars:     Size  Location     Type
  1886 ;;  grs             1    6[COMMON] unsigned char 
  1887 ;;  bexp            1    5[COMMON] unsigned char 
  1888 ;;  aexp            1    4[COMMON] unsigned char 
  1889 ;;  signs           1    3[COMMON] unsigned char 
  1890 ;; Return value:  Size  Location     Type
  1891 ;;                  4    0[BANK0 ] unsigned char 
  1892 ;; Registers used:
  1893 ;;		wreg, status,2, status,0, btemp+1
  1894 ;; Tracked objects:
  1895 ;;		On entry : 0/0
  1896 ;;		On exit  : 0/0
  1897 ;;		Unchanged: 0/0
  1898 ;; Data sizes:     COMMON   BANK0   BANK1   BANK3   BANK2
  1899 ;;      Params:         0       8       0       0       0
  1900 ;;      Locals:         4       0       0       0       0
  1901 ;;      Temps:          0       8       0       0       0
  1902 ;;      Totals:         4      16       0       0       0
  1903 ;;Total ram usage:       20 bytes
  1904 ;; Hardware stack levels used: 1
  1905 ;; Hardware stack levels required when called: 1
  1906 ;; This function calls:
  1907 ;;		Nothing
  1908 ;; This function is called by:
  1909 ;;		___flsub
  1910 ;; This function uses a non-reentrant model
  1911 ;;
  1912                           
  1913                           
  1914                           ;psect for function ___fladd
  1915  037B                     ___fladd:
  1916  037B                     l1893:	
  1917                           ;incstack = 0
  1918                           ; Regs used in ___fladd: [wreg+status,2+status,0+btemp+1]
  1919                           
  1920  037B  1283               	bcf	3,5	;RP0=0, select bank0
  1921  037C  1303               	bcf	3,6	;RP1=0, select bank0
  1922  037D  0823               	movf	___fladd@b+3,w
  1923  037E  3980               	andlw	128
  1924  037F  00A8               	movwf	??___fladd
  1925  0380  0828               	movf	??___fladd,w
  1926  0381  00F3               	movwf	___fladd@signs
  1927  0382                     l1895:
  1928  0382  0823               	movf	___fladd@b+3,w
  1929  0383  00A8               	movwf	??___fladd
  1930  0384  0728               	addwf	??___fladd,w
  1931  0385  00A9               	movwf	??___fladd+1
  1932  0386  0829               	movf	??___fladd+1,w
  1933  0387  00F5               	movwf	___fladd@bexp
  1934  0388                     l1897:
  1935  0388  1FA2               	btfss	___fladd@b+2,7
  1936  0389  2B8B               	goto	u2561
  1937  038A  2B8C               	goto	u2560
  1938  038B                     u2561:
  1939  038B  2B8D               	goto	l1901
  1940  038C                     u2560:
  1941  038C                     l1899:
  1942  038C  1475               	bsf	___fladd@bexp,0
  1943  038D                     l1901:
  1944  038D  0875               	movf	___fladd@bexp,w
  1945  038E  1903               	btfsc	3,2
  1946  038F  2B91               	goto	u2571
  1947  0390  2B92               	goto	u2570
  1948  0391                     u2571:
  1949  0391  2BA2               	goto	l1911
  1950  0392                     u2570:
  1951  0392                     l1903:
  1952  0392  0A75               	incf	___fladd@bexp,w
  1953  0393  1D03               	btfss	3,2
  1954  0394  2B96               	goto	u2581
  1955  0395  2B97               	goto	u2580
  1956  0396                     u2581:
  1957  0396  2B9F               	goto	l1907
  1958  0397                     u2580:
  1959  0397                     l1905:
  1960  0397  3000               	movlw	0
  1961  0398  00A3               	movwf	___fladd@b+3
  1962  0399  3000               	movlw	0
  1963  039A  00A2               	movwf	___fladd@b+2
  1964  039B  3000               	movlw	0
  1965  039C  00A1               	movwf	___fladd@b+1
  1966  039D  3000               	movlw	0
  1967  039E  00A0               	movwf	___fladd@b
  1968  039F                     l1907:
  1969  039F  17A2               	bsf	___fladd@b+2,7
  1970  03A0                     l1909:
  1971  03A0  01A3               	clrf	___fladd@b+3
  1972  03A1  2BAA               	goto	l1913
  1973  03A2                     l1911:
  1974  03A2  3000               	movlw	0
  1975  03A3  00A3               	movwf	___fladd@b+3
  1976  03A4  3000               	movlw	0
  1977  03A5  00A2               	movwf	___fladd@b+2
  1978  03A6  3000               	movlw	0
  1979  03A7  00A1               	movwf	___fladd@b+1
  1980  03A8  3000               	movlw	0
  1981  03A9  00A0               	movwf	___fladd@b
  1982  03AA                     l1913:
  1983  03AA  0827               	movf	___fladd@a+3,w
  1984  03AB  3980               	andlw	128
  1985  03AC  00A8               	movwf	??___fladd
  1986  03AD  0828               	movf	??___fladd,w
  1987  03AE  00F4               	movwf	___fladd@aexp
  1988  03AF                     l1915:
  1989  03AF  0874               	movf	___fladd@aexp,w
  1990  03B0  0673               	xorwf	___fladd@signs,w
  1991  03B1  1903               	skipnz
  1992  03B2  2BB4               	goto	u2591
  1993  03B3  2BB5               	goto	u2590
  1994  03B4                     u2591:
  1995  03B4  2BB6               	goto	l1919
  1996  03B5                     u2590:
  1997  03B5                     l1917:
  1998  03B5  1773               	bsf	___fladd@signs,6
  1999  03B6                     l1919:
  2000  03B6  0827               	movf	___fladd@a+3,w
  2001  03B7  00A8               	movwf	??___fladd
  2002  03B8  0728               	addwf	??___fladd,w
  2003  03B9  00A9               	movwf	??___fladd+1
  2004  03BA  0829               	movf	??___fladd+1,w
  2005  03BB  00F4               	movwf	___fladd@aexp
  2006  03BC                     l1921:
  2007  03BC  1FA6               	btfss	___fladd@a+2,7
  2008  03BD  2BBF               	goto	u2601
  2009  03BE  2BC0               	goto	u2600
  2010  03BF                     u2601:
  2011  03BF  2BC1               	goto	l1925
  2012  03C0                     u2600:
  2013  03C0                     l1923:
  2014  03C0  1474               	bsf	___fladd@aexp,0
  2015  03C1                     l1925:
  2016  03C1  0874               	movf	___fladd@aexp,w
  2017  03C2  1903               	btfsc	3,2
  2018  03C3  2BC5               	goto	u2611
  2019  03C4  2BC6               	goto	u2610
  2020  03C5                     u2611:
  2021  03C5  2BD6               	goto	l1935
  2022  03C6                     u2610:
  2023  03C6                     l1927:
  2024  03C6  0A74               	incf	___fladd@aexp,w
  2025  03C7  1D03               	btfss	3,2
  2026  03C8  2BCA               	goto	u2621
  2027  03C9  2BCB               	goto	u2620
  2028  03CA                     u2621:
  2029  03CA  2BD3               	goto	l1931
  2030  03CB                     u2620:
  2031  03CB                     l1929:
  2032  03CB  3000               	movlw	0
  2033  03CC  00A7               	movwf	___fladd@a+3
  2034  03CD  3000               	movlw	0
  2035  03CE  00A6               	movwf	___fladd@a+2
  2036  03CF  3000               	movlw	0
  2037  03D0  00A5               	movwf	___fladd@a+1
  2038  03D1  3000               	movlw	0
  2039  03D2  00A4               	movwf	___fladd@a
  2040  03D3                     l1931:
  2041  03D3  17A6               	bsf	___fladd@a+2,7
  2042  03D4                     l1933:
  2043  03D4  01A7               	clrf	___fladd@a+3
  2044  03D5  2BDE               	goto	l542
  2045  03D6                     l1935:
  2046  03D6  3000               	movlw	0
  2047  03D7  00A7               	movwf	___fladd@a+3
  2048  03D8  3000               	movlw	0
  2049  03D9  00A6               	movwf	___fladd@a+2
  2050  03DA  3000               	movlw	0
  2051  03DB  00A5               	movwf	___fladd@a+1
  2052  03DC  3000               	movlw	0
  2053  03DD  00A4               	movwf	___fladd@a
  2054  03DE                     l542:
  2055  03DE  0875               	movf	___fladd@bexp,w
  2056  03DF  0274               	subwf	___fladd@aexp,w
  2057  03E0  1803               	skipnc
  2058  03E1  2BE3               	goto	u2631
  2059  03E2  2BE4               	goto	u2630
  2060  03E3                     u2631:
  2061  03E3  2C28               	goto	l1971
  2062  03E4                     u2630:
  2063  03E4                     l1937:
  2064  03E4  1F73               	btfss	___fladd@signs,6
  2065  03E5  2BE7               	goto	u2641
  2066  03E6  2BE8               	goto	u2640
  2067  03E7                     u2641:
  2068  03E7  2BEC               	goto	l1941
  2069  03E8                     u2640:
  2070  03E8                     l1939:
  2071  03E8  3080               	movlw	128
  2072  03E9  00A8               	movwf	??___fladd
  2073  03EA  0828               	movf	??___fladd,w
  2074  03EB  06F3               	xorwf	___fladd@signs,f
  2075  03EC                     l1941:
  2076  03EC  0875               	movf	___fladd@bexp,w
  2077  03ED  00A8               	movwf	??___fladd
  2078  03EE  0828               	movf	??___fladd,w
  2079  03EF  00F6               	movwf	___fladd@grs
  2080  03F0                     l1943:
  2081  03F0  0874               	movf	___fladd@aexp,w
  2082  03F1  00A8               	movwf	??___fladd
  2083  03F2  0828               	movf	??___fladd,w
  2084  03F3  00F5               	movwf	___fladd@bexp
  2085  03F4                     l1945:
  2086  03F4  0876               	movf	___fladd@grs,w
  2087  03F5  00A8               	movwf	??___fladd
  2088  03F6  0828               	movf	??___fladd,w
  2089  03F7  00F4               	movwf	___fladd@aexp
  2090  03F8                     l1947:
  2091  03F8  0820               	movf	___fladd@b,w
  2092  03F9  00A8               	movwf	??___fladd
  2093  03FA  0828               	movf	??___fladd,w
  2094  03FB  00F6               	movwf	___fladd@grs
  2095  03FC                     l1949:
  2096  03FC  0824               	movf	___fladd@a,w
  2097  03FD  00A8               	movwf	??___fladd
  2098  03FE  0828               	movf	??___fladd,w
  2099  03FF  00A0               	movwf	___fladd@b
  2100  0400                     l1951:
  2101  0400  0876               	movf	___fladd@grs,w
  2102  0401  00A8               	movwf	??___fladd
  2103  0402  0828               	movf	??___fladd,w
  2104  0403  00A4               	movwf	___fladd@a
  2105  0404                     l1953:
  2106  0404  0821               	movf	___fladd@b+1,w
  2107  0405  00A8               	movwf	??___fladd
  2108  0406  0828               	movf	??___fladd,w
  2109  0407  00F6               	movwf	___fladd@grs
  2110  0408                     l1955:
  2111  0408  0825               	movf	___fladd@a+1,w
  2112  0409  00A8               	movwf	??___fladd
  2113  040A  0828               	movf	??___fladd,w
  2114  040B  00A1               	movwf	___fladd@b+1
  2115  040C                     l1957:
  2116  040C  0876               	movf	___fladd@grs,w
  2117  040D  00A8               	movwf	??___fladd
  2118  040E  0828               	movf	??___fladd,w
  2119  040F  00A5               	movwf	___fladd@a+1
  2120  0410                     l1959:
  2121  0410  0822               	movf	___fladd@b+2,w
  2122  0411  00A8               	movwf	??___fladd
  2123  0412  0828               	movf	??___fladd,w
  2124  0413  00F6               	movwf	___fladd@grs
  2125  0414                     l1961:
  2126  0414  0826               	movf	___fladd@a+2,w
  2127  0415  00A8               	movwf	??___fladd
  2128  0416  0828               	movf	??___fladd,w
  2129  0417  00A2               	movwf	___fladd@b+2
  2130  0418                     l1963:
  2131  0418  0876               	movf	___fladd@grs,w
  2132  0419  00A8               	movwf	??___fladd
  2133  041A  0828               	movf	??___fladd,w
  2134  041B  00A6               	movwf	___fladd@a+2
  2135  041C                     l1965:
  2136  041C  0823               	movf	___fladd@b+3,w
  2137  041D  00A8               	movwf	??___fladd
  2138  041E  0828               	movf	??___fladd,w
  2139  041F  00F6               	movwf	___fladd@grs
  2140  0420                     l1967:
  2141  0420  0827               	movf	___fladd@a+3,w
  2142  0421  00A8               	movwf	??___fladd
  2143  0422  0828               	movf	??___fladd,w
  2144  0423  00A3               	movwf	___fladd@b+3
  2145  0424                     l1969:
  2146  0424  0876               	movf	___fladd@grs,w
  2147  0425  00A8               	movwf	??___fladd
  2148  0426  0828               	movf	??___fladd,w
  2149  0427  00A7               	movwf	___fladd@a+3
  2150  0428                     l1971:
  2151  0428  01F6               	clrf	___fladd@grs
  2152  0429                     l1973:
  2153  0429  0874               	movf	___fladd@aexp,w
  2154  042A  00A8               	movwf	??___fladd
  2155  042B  01A9               	clrf	??___fladd+1
  2156  042C  0829               	movf	??___fladd+1,w
  2157  042D  00AB               	movwf	??___fladd+3
  2158  042E  0875               	movf	___fladd@bexp,w
  2159  042F  0228               	subwf	??___fladd,w
  2160  0430  00AA               	movwf	??___fladd+2
  2161  0431  1C03               	skipc
  2162  0432  03AB               	decf	??___fladd+3,f
  2163  0433  082B               	movf	??___fladd+3,w
  2164  0434  3A80               	xorlw	128
  2165  0435  00FF               	movwf	btemp+1
  2166  0436  3080               	movlw	128
  2167  0437  027F               	subwf	btemp+1,w
  2168  0438  1D03               	skipz
  2169  0439  2C3C               	goto	u2655
  2170  043A  301A               	movlw	26
  2171  043B  022A               	subwf	??___fladd+2,w
  2172  043C                     u2655:
  2173  043C  1C03               	skipc
  2174  043D  2C3F               	goto	u2651
  2175  043E  2C40               	goto	u2650
  2176  043F                     u2651:
  2177  043F  2C81               	goto	l1989
  2178  0440                     u2650:
  2179  0440                     l1975:
  2180  0440  1283               	bcf	3,5	;RP0=0, select bank0
  2181  0441  1303               	bcf	3,6	;RP1=0, select bank0
  2182  0442  0823               	movf	___fladd@b+3,w
  2183  0443  0422               	iorwf	___fladd@b+2,w
  2184  0444  0421               	iorwf	___fladd@b+1,w
  2185  0445  0420               	iorwf	___fladd@b,w
  2186  0446  1D03               	skipz
  2187  0447  2C49               	goto	u2661
  2188  0448  2C4B               	goto	u2660
  2189  0449                     u2661:
  2190  0449  3001               	movlw	1
  2191  044A  2C4C               	goto	u2670
  2192  044B                     u2660:
  2193  044B  3000               	movlw	0
  2194  044C                     u2670:
  2195  044C  00A8               	movwf	??___fladd
  2196  044D  0828               	movf	??___fladd,w
  2197  044E  00F6               	movwf	___fladd@grs
  2198  044F  3000               	movlw	0
  2199  0450  00A3               	movwf	___fladd@b+3
  2200  0451  3000               	movlw	0
  2201  0452  00A2               	movwf	___fladd@b+2
  2202  0453  3000               	movlw	0
  2203  0454  00A1               	movwf	___fladd@b+1
  2204  0455  3000               	movlw	0
  2205  0456  00A0               	movwf	___fladd@b
  2206  0457  0874               	movf	___fladd@aexp,w
  2207  0458  00A8               	movwf	??___fladd
  2208  0459  0828               	movf	??___fladd,w
  2209  045A  00F5               	movwf	___fladd@bexp
  2210  045B  2C87               	goto	l546
  2211  045C                     l548:
  2212  045C  1C76               	btfss	___fladd@grs,0
  2213  045D  2C5F               	goto	u2681
  2214  045E  2C60               	goto	u2680
  2215  045F                     u2681:
  2216  045F  2C6B               	goto	l1979
  2217  0460                     u2680:
  2218  0460                     l1977:
  2219  0460  0876               	movf	___fladd@grs,w
  2220  0461  1283               	bcf	3,5	;RP0=0, select bank0
  2221  0462  1303               	bcf	3,6	;RP1=0, select bank0
  2222  0463  00A8               	movwf	??___fladd
  2223  0464  1003               	clrc
  2224  0465  0C28               	rrf	??___fladd,w
  2225  0466  3801               	iorlw	1
  2226  0467  00A9               	movwf	??___fladd+1
  2227  0468  0829               	movf	??___fladd+1,w
  2228  0469  00F6               	movwf	___fladd@grs
  2229  046A  2C6D               	goto	l1981
  2230  046B                     l1979:
  2231  046B  1003               	clrc
  2232  046C  0CF6               	rrf	___fladd@grs,f
  2233  046D                     l1981:
  2234  046D  1283               	bcf	3,5	;RP0=0, select bank0
  2235  046E  1303               	bcf	3,6	;RP1=0, select bank0
  2236  046F  1C20               	btfss	___fladd@b,0
  2237  0470  2C72               	goto	u2691
  2238  0471  2C73               	goto	u2690
  2239  0472                     u2691:
  2240  0472  2C74               	goto	l1985
  2241  0473                     u2690:
  2242  0473                     l1983:
  2243  0473  17F6               	bsf	___fladd@grs,7
  2244  0474                     l1985:
  2245  0474  3001               	movlw	1
  2246  0475  00A8               	movwf	??___fladd
  2247  0476                     u2705:
  2248  0476  0D23               	rlf	___fladd@b+3,w
  2249  0477  0CA3               	rrf	___fladd@b+3,f
  2250  0478  0CA2               	rrf	___fladd@b+2,f
  2251  0479  0CA1               	rrf	___fladd@b+1,f
  2252  047A  0CA0               	rrf	___fladd@b,f
  2253  047B  0BA8               	decfsz	??___fladd& (0+127),f
  2254  047C  2C76               	goto	u2705
  2255  047D                     l1987:
  2256  047D  3001               	movlw	1
  2257  047E  00A8               	movwf	??___fladd
  2258  047F  0828               	movf	??___fladd,w
  2259  0480  07F5               	addwf	___fladd@bexp,f
  2260  0481                     l1989:
  2261  0481  0874               	movf	___fladd@aexp,w
  2262  0482  0275               	subwf	___fladd@bexp,w
  2263  0483  1C03               	skipc
  2264  0484  2C86               	goto	u2711
  2265  0485  2C87               	goto	u2710
  2266  0486                     u2711:
  2267  0486  2C5C               	goto	l548
  2268  0487                     u2710:
  2269  0487                     l546:
  2270  0487  1B73               	btfsc	___fladd@signs,6
  2271  0488  2C8A               	goto	u2721
  2272  0489  2C8B               	goto	u2720
  2273  048A                     u2721:
  2274  048A  2CDA               	goto	l2015
  2275  048B                     u2720:
  2276  048B                     l1991:
  2277  048B  0875               	movf	___fladd@bexp,w
  2278  048C  1D03               	btfss	3,2
  2279  048D  2C8F               	goto	u2731
  2280  048E  2C90               	goto	u2730
  2281  048F                     u2731:
  2282  048F  2C9B               	goto	l1997
  2283  0490                     u2730:
  2284  0490                     l1993:
  2285  0490  3000               	movlw	0
  2286  0491  1283               	bcf	3,5	;RP0=0, select bank0
  2287  0492  1303               	bcf	3,6	;RP1=0, select bank0
  2288  0493  00A3               	movwf	?___fladd+3
  2289  0494  3000               	movlw	0
  2290  0495  00A2               	movwf	?___fladd+2
  2291  0496  3000               	movlw	0
  2292  0497  00A1               	movwf	?___fladd+1
  2293  0498  3000               	movlw	0
  2294  0499  00A0               	movwf	?___fladd
  2295  049A  2E0A               	goto	l555
  2296  049B                     l1997:
  2297  049B  1283               	bcf	3,5	;RP0=0, select bank0
  2298  049C  1303               	bcf	3,6	;RP1=0, select bank0
  2299  049D  0824               	movf	___fladd@a,w
  2300  049E  07A0               	addwf	___fladd@b,f
  2301  049F  0825               	movf	___fladd@a+1,w
  2302  04A0  1103               	clrz
  2303  04A1  1803               	skipnc
  2304  04A2  3E01               	addlw	1
  2305  04A3  1903               	skipnz
  2306  04A4  2CA6               	goto	u2741
  2307  04A5  07A1               	addwf	___fladd@b+1,f
  2308  04A6                     u2741:
  2309  04A6  0826               	movf	___fladd@a+2,w
  2310  04A7  1103               	clrz
  2311  04A8  1803               	skipnc
  2312  04A9  3E01               	addlw	1
  2313  04AA  1903               	skipnz
  2314  04AB  2CAD               	goto	u2742
  2315  04AC  07A2               	addwf	___fladd@b+2,f
  2316  04AD                     u2742:
  2317  04AD  0827               	movf	___fladd@a+3,w
  2318  04AE  1103               	clrz
  2319  04AF  1803               	skipnc
  2320  04B0  3E01               	addlw	1
  2321  04B1  1903               	skipnz
  2322  04B2  2CB4               	goto	u2743
  2323  04B3  07A3               	addwf	___fladd@b+3,f
  2324  04B4                     u2743:
  2325  04B4                     l1999:
  2326  04B4  1C23               	btfss	___fladd@b+3,0
  2327  04B5  2CB7               	goto	u2751
  2328  04B6  2CB8               	goto	u2750
  2329  04B7                     u2751:
  2330  04B7  2D90               	goto	l2049
  2331  04B8                     u2750:
  2332  04B8                     l2001:
  2333  04B8  1C76               	btfss	___fladd@grs,0
  2334  04B9  2CBB               	goto	u2761
  2335  04BA  2CBC               	goto	u2760
  2336  04BB                     u2761:
  2337  04BB  2CC5               	goto	l2005
  2338  04BC                     u2760:
  2339  04BC                     l2003:
  2340  04BC  0876               	movf	___fladd@grs,w
  2341  04BD  00A8               	movwf	??___fladd
  2342  04BE  1003               	clrc
  2343  04BF  0C28               	rrf	??___fladd,w
  2344  04C0  3801               	iorlw	1
  2345  04C1  00A9               	movwf	??___fladd+1
  2346  04C2  0829               	movf	??___fladd+1,w
  2347  04C3  00F6               	movwf	___fladd@grs
  2348  04C4  2CC7               	goto	l2007
  2349  04C5                     l2005:
  2350  04C5  1003               	clrc
  2351  04C6  0CF6               	rrf	___fladd@grs,f
  2352  04C7                     l2007:
  2353  04C7  1C20               	btfss	___fladd@b,0
  2354  04C8  2CCA               	goto	u2771
  2355  04C9  2CCB               	goto	u2770
  2356  04CA                     u2771:
  2357  04CA  2CCC               	goto	l2011
  2358  04CB                     u2770:
  2359  04CB                     l2009:
  2360  04CB  17F6               	bsf	___fladd@grs,7
  2361  04CC                     l2011:
  2362  04CC  3001               	movlw	1
  2363  04CD  00A8               	movwf	??___fladd
  2364  04CE                     u2785:
  2365  04CE  0D23               	rlf	___fladd@b+3,w
  2366  04CF  0CA3               	rrf	___fladd@b+3,f
  2367  04D0  0CA2               	rrf	___fladd@b+2,f
  2368  04D1  0CA1               	rrf	___fladd@b+1,f
  2369  04D2  0CA0               	rrf	___fladd@b,f
  2370  04D3  0BA8               	decfsz	??___fladd& (0+127),f
  2371  04D4  2CCE               	goto	u2785
  2372  04D5                     l2013:
  2373  04D5  3001               	movlw	1
  2374  04D6  00A8               	movwf	??___fladd
  2375  04D7  0828               	movf	??___fladd,w
  2376  04D8  07F5               	addwf	___fladd@bexp,f
  2377  04D9  2D90               	goto	l2049
  2378  04DA                     l2015:
  2379  04DA  1283               	bcf	3,5	;RP0=0, select bank0
  2380  04DB  1303               	bcf	3,6	;RP1=0, select bank0
  2381  04DC  0823               	movf	___fladd@b+3,w
  2382  04DD  3A80               	xorlw	128
  2383  04DE  00FF               	movwf	btemp+1
  2384  04DF  0827               	movf	___fladd@a+3,w
  2385  04E0  3A80               	xorlw	128
  2386  04E1  027F               	subwf	btemp+1,w
  2387  04E2  1D03               	skipz
  2388  04E3  2CEE               	goto	u2793
  2389  04E4  0826               	movf	___fladd@a+2,w
  2390  04E5  0222               	subwf	___fladd@b+2,w
  2391  04E6  1D03               	skipz
  2392  04E7  2CEE               	goto	u2793
  2393  04E8  0825               	movf	___fladd@a+1,w
  2394  04E9  0221               	subwf	___fladd@b+1,w
  2395  04EA  1D03               	skipz
  2396  04EB  2CEE               	goto	u2793
  2397  04EC  0824               	movf	___fladd@a,w
  2398  04ED  0220               	subwf	___fladd@b,w
  2399  04EE                     u2793:
  2400  04EE  1803               	skipnc
  2401  04EF  2CF1               	goto	u2791
  2402  04F0  2CF2               	goto	u2790
  2403  04F1                     u2791:
  2404  04F1  2D4A               	goto	l2025
  2405  04F2                     u2790:
  2406  04F2                     l2017:
  2407  04F2  30FF               	movlw	255
  2408  04F3  00A8               	movwf	??___fladd
  2409  04F4  30FF               	movlw	255
  2410  04F5  00A9               	movwf	??___fladd+1
  2411  04F6  30FF               	movlw	255
  2412  04F7  00AA               	movwf	??___fladd+2
  2413  04F8  30FF               	movlw	255
  2414  04F9  00AB               	movwf	??___fladd+3
  2415  04FA  0824               	movf	___fladd@a,w
  2416  04FB  00AC               	movwf	??___fladd+4
  2417  04FC  0825               	movf	___fladd@a+1,w
  2418  04FD  00AD               	movwf	??___fladd+5
  2419  04FE  0826               	movf	___fladd@a+2,w
  2420  04FF  00AE               	movwf	??___fladd+6
  2421  0500  0827               	movf	___fladd@a+3,w
  2422  0501  00AF               	movwf	??___fladd+7
  2423  0502  0820               	movf	___fladd@b,w
  2424  0503  02AC               	subwf	??___fladd+4,f
  2425  0504  0821               	movf	___fladd@b+1,w
  2426  0505  1C03               	skipc
  2427  0506  0F21               	incfsz	___fladd@b+1,w
  2428  0507  2D09               	goto	u2801
  2429  0508  2D0A               	goto	u2802
  2430  0509                     u2801:
  2431  0509  02AD               	subwf	??___fladd+5,f
  2432  050A                     u2802:
  2433  050A  0822               	movf	___fladd@b+2,w
  2434  050B  1C03               	skipc
  2435  050C  0F22               	incfsz	___fladd@b+2,w
  2436  050D  2D0F               	goto	u2803
  2437  050E  2D10               	goto	u2804
  2438  050F                     u2803:
  2439  050F  02AE               	subwf	??___fladd+6,f
  2440  0510                     u2804:
  2441  0510  0823               	movf	___fladd@b+3,w
  2442  0511  1C03               	skipc
  2443  0512  0F23               	incfsz	___fladd@b+3,w
  2444  0513  2D15               	goto	u2805
  2445  0514  2D16               	goto	u2806
  2446  0515                     u2805:
  2447  0515  02AF               	subwf	??___fladd+7,f
  2448  0516                     u2806:
  2449  0516  082C               	movf	??___fladd+4,w
  2450  0517  07A8               	addwf	??___fladd,f
  2451  0518  082D               	movf	??___fladd+5,w
  2452  0519  1803               	skipnc
  2453  051A  0F2D               	incfsz	??___fladd+5,w
  2454  051B  2D1D               	goto	u2810
  2455  051C  2D1E               	goto	u2811
  2456  051D                     u2810:
  2457  051D  07A9               	addwf	??___fladd+1,f
  2458  051E                     u2811:
  2459  051E  082E               	movf	??___fladd+6,w
  2460  051F  1803               	skipnc
  2461  0520  0F2E               	incfsz	??___fladd+6,w
  2462  0521  2D23               	goto	u2812
  2463  0522  2D24               	goto	u2813
  2464  0523                     u2812:
  2465  0523  07AA               	addwf	??___fladd+2,f
  2466  0524                     u2813:
  2467  0524  082F               	movf	??___fladd+7,w
  2468  0525  1803               	skipnc
  2469  0526  0A2F               	incf	??___fladd+7,w
  2470  0527  07AB               	addwf	??___fladd+3,f
  2471  0528  082B               	movf	??___fladd+3,w
  2472  0529  00A3               	movwf	___fladd@b+3
  2473  052A  082A               	movf	??___fladd+2,w
  2474  052B  00A2               	movwf	___fladd@b+2
  2475  052C  0829               	movf	??___fladd+1,w
  2476  052D  00A1               	movwf	___fladd@b+1
  2477  052E  0828               	movf	??___fladd,w
  2478  052F  00A0               	movwf	___fladd@b
  2479  0530                     l2019:
  2480  0530  3080               	movlw	128
  2481  0531  00A8               	movwf	??___fladd
  2482  0532  0828               	movf	??___fladd,w
  2483  0533  06F3               	xorwf	___fladd@signs,f
  2484  0534  09F6               	comf	___fladd@grs,f
  2485  0535  0AF6               	incf	___fladd@grs,f
  2486  0536                     l2021:
  2487  0536  0876               	movf	___fladd@grs,w
  2488  0537  1D03               	btfss	3,2
  2489  0538  2D3A               	goto	u2821
  2490  0539  2D3B               	goto	u2820
  2491  053A                     u2821:
  2492  053A  2D58               	goto	l563
  2493  053B                     u2820:
  2494  053B                     l2023:
  2495  053B  3001               	movlw	1
  2496  053C  07A0               	addwf	___fladd@b,f
  2497  053D  3000               	movlw	0
  2498  053E  1803               	skipnc
  2499  053F  3001               	movlw	1
  2500  0540  07A1               	addwf	___fladd@b+1,f
  2501  0541  3000               	movlw	0
  2502  0542  1803               	skipnc
  2503  0543  3001               	movlw	1
  2504  0544  07A2               	addwf	___fladd@b+2,f
  2505  0545  3000               	movlw	0
  2506  0546  1803               	skipnc
  2507  0547  3001               	movlw	1
  2508  0548  07A3               	addwf	___fladd@b+3,f
  2509  0549  2D58               	goto	l563
  2510  054A                     l2025:
  2511  054A  0824               	movf	___fladd@a,w
  2512  054B  02A0               	subwf	___fladd@b,f
  2513  054C  0825               	movf	___fladd@a+1,w
  2514  054D  1C03               	skipc
  2515  054E  0F25               	incfsz	___fladd@a+1,w
  2516  054F  02A1               	subwf	___fladd@b+1,f
  2517  0550  0826               	movf	___fladd@a+2,w
  2518  0551  1C03               	skipc
  2519  0552  0F26               	incfsz	___fladd@a+2,w
  2520  0553  02A2               	subwf	___fladd@b+2,f
  2521  0554  0827               	movf	___fladd@a+3,w
  2522  0555  1C03               	skipc
  2523  0556  0F27               	incfsz	___fladd@a+3,w
  2524  0557  02A3               	subwf	___fladd@b+3,f
  2525  0558                     l563:
  2526  0558  0823               	movf	___fladd@b+3,w
  2527  0559  0422               	iorwf	___fladd@b+2,w
  2528  055A  0421               	iorwf	___fladd@b+1,w
  2529  055B  0420               	iorwf	___fladd@b,w
  2530  055C  1D03               	skipz
  2531  055D  2D5F               	goto	u2831
  2532  055E  2D60               	goto	u2830
  2533  055F                     u2831:
  2534  055F  2D8C               	goto	l2047
  2535  0560                     u2830:
  2536  0560                     l2027:
  2537  0560  0876               	movf	___fladd@grs,w
  2538  0561  1D03               	btfss	3,2
  2539  0562  2D64               	goto	u2841
  2540  0563  2D65               	goto	u2840
  2541  0564                     u2841:
  2542  0564  2D8C               	goto	l2047
  2543  0565                     u2840:
  2544  0565                     l2029:
  2545  0565  3000               	movlw	0
  2546  0566  00A3               	movwf	?___fladd+3
  2547  0567  3000               	movlw	0
  2548  0568  00A2               	movwf	?___fladd+2
  2549  0569  3000               	movlw	0
  2550  056A  00A1               	movwf	?___fladd+1
  2551  056B  3000               	movlw	0
  2552  056C  00A0               	movwf	?___fladd
  2553  056D  2E0A               	goto	l555
  2554  056E                     l2033:
  2555  056E  3001               	movlw	1
  2556  056F  00A8               	movwf	??___fladd
  2557  0570                     u2855:
  2558  0570  1003               	clrc
  2559  0571  0DA0               	rlf	___fladd@b,f
  2560  0572  0DA1               	rlf	___fladd@b+1,f
  2561  0573  0DA2               	rlf	___fladd@b+2,f
  2562  0574  0DA3               	rlf	___fladd@b+3,f
  2563  0575  0BA8               	decfsz	??___fladd,f
  2564  0576  2D70               	goto	u2855
  2565  0577                     l2035:
  2566  0577  1FF6               	btfss	___fladd@grs,7
  2567  0578  2D7A               	goto	u2861
  2568  0579  2D7B               	goto	u2860
  2569  057A                     u2861:
  2570  057A  2D7C               	goto	l567
  2571  057B                     u2860:
  2572  057B                     l2037:
  2573  057B  1420               	bsf	___fladd@b,0
  2574  057C                     l567:
  2575  057C  1C76               	btfss	___fladd@grs,0
  2576  057D  2D7F               	goto	u2871
  2577  057E  2D80               	goto	u2870
  2578  057F                     u2871:
  2579  057F  2D83               	goto	l2041
  2580  0580                     u2870:
  2581  0580                     l2039:
  2582  0580  1403               	setc
  2583  0581  0DF6               	rlf	___fladd@grs,f
  2584  0582  2D85               	goto	l2043
  2585  0583                     l2041:
  2586  0583  1003               	clrc
  2587  0584  0DF6               	rlf	___fladd@grs,f
  2588  0585                     l2043:
  2589  0585  0875               	movf	___fladd@bexp,w
  2590  0586  1903               	btfsc	3,2
  2591  0587  2D89               	goto	u2881
  2592  0588  2D8A               	goto	u2880
  2593  0589                     u2881:
  2594  0589  2D8C               	goto	l2047
  2595  058A                     u2880:
  2596  058A                     l2045:
  2597  058A  3001               	movlw	1
  2598  058B  02F5               	subwf	___fladd@bexp,f
  2599  058C                     l2047:
  2600  058C  1FA2               	btfss	___fladd@b+2,7
  2601  058D  2D8F               	goto	u2891
  2602  058E  2D90               	goto	u2890
  2603  058F                     u2891:
  2604  058F  2D6E               	goto	l2033
  2605  0590                     u2890:
  2606  0590                     l2049:
  2607  0590  01F4               	clrf	___fladd@aexp
  2608  0591                     l2051:
  2609  0591  1FF6               	btfss	___fladd@grs,7
  2610  0592  2D94               	goto	u2901
  2611  0593  2D95               	goto	u2900
  2612  0594                     u2901:
  2613  0594  2DA3               	goto	l2059
  2614  0595                     u2900:
  2615  0595                     l2053:
  2616  0595  0876               	movf	___fladd@grs,w
  2617  0596  397F               	andlw	127
  2618  0597  1903               	btfsc	3,2
  2619  0598  2D9A               	goto	u2911
  2620  0599  2D9B               	goto	u2910
  2621  059A                     u2911:
  2622  059A  2D9E               	goto	l573
  2623  059B                     u2910:
  2624  059B                     l2055:
  2625  059B  01F4               	clrf	___fladd@aexp
  2626  059C  0AF4               	incf	___fladd@aexp,f
  2627  059D  2DA3               	goto	l2059
  2628  059E                     l573:
  2629  059E  1C20               	btfss	___fladd@b,0
  2630  059F  2DA1               	goto	u2921
  2631  05A0  2DA2               	goto	u2920
  2632  05A1                     u2921:
  2633  05A1  2DA3               	goto	l2059
  2634  05A2                     u2920:
  2635  05A2  2D9B               	goto	l2055
  2636  05A3                     l2059:
  2637  05A3  0874               	movf	___fladd@aexp,w
  2638  05A4  1903               	btfsc	3,2
  2639  05A5  2DA7               	goto	u2931
  2640  05A6  2DA8               	goto	u2930
  2641  05A7                     u2931:
  2642  05A7  2DDC               	goto	l576
  2643  05A8                     u2930:
  2644  05A8                     l2061:
  2645  05A8  3001               	movlw	1
  2646  05A9  07A0               	addwf	___fladd@b,f
  2647  05AA  3000               	movlw	0
  2648  05AB  1803               	skipnc
  2649  05AC  3001               	movlw	1
  2650  05AD  07A1               	addwf	___fladd@b+1,f
  2651  05AE  3000               	movlw	0
  2652  05AF  1803               	skipnc
  2653  05B0  3001               	movlw	1
  2654  05B1  07A2               	addwf	___fladd@b+2,f
  2655  05B2  3000               	movlw	0
  2656  05B3  1803               	skipnc
  2657  05B4  3001               	movlw	1
  2658  05B5  07A3               	addwf	___fladd@b+3,f
  2659  05B6                     l2063:
  2660  05B6  1C23               	btfss	___fladd@b+3,0
  2661  05B7  2DB9               	goto	u2941
  2662  05B8  2DBA               	goto	u2940
  2663  05B9                     u2941:
  2664  05B9  2DDC               	goto	l576
  2665  05BA                     u2940:
  2666  05BA                     l2065:
  2667  05BA  0820               	movf	___fladd@b,w
  2668  05BB  00A8               	movwf	??___fladd
  2669  05BC  0821               	movf	___fladd@b+1,w
  2670  05BD  00A9               	movwf	??___fladd+1
  2671  05BE  0822               	movf	___fladd@b+2,w
  2672  05BF  00AA               	movwf	??___fladd+2
  2673  05C0  0823               	movf	___fladd@b+3,w
  2674  05C1  00AB               	movwf	??___fladd+3
  2675  05C2  3001               	movlw	1
  2676  05C3  00AC               	movwf	??___fladd+4
  2677  05C4                     u2955:
  2678  05C4  0D2B               	rlf	??___fladd+3,w
  2679  05C5  0CAB               	rrf	??___fladd+3,f
  2680  05C6  0CAA               	rrf	??___fladd+2,f
  2681  05C7  0CA9               	rrf	??___fladd+1,f
  2682  05C8  0CA8               	rrf	??___fladd,f
  2683  05C9                     u2950:
  2684  05C9  0BAC               	decfsz	??___fladd+4,f
  2685  05CA  2DC4               	goto	u2955
  2686  05CB  082B               	movf	??___fladd+3,w
  2687  05CC  00A3               	movwf	___fladd@b+3
  2688  05CD  082A               	movf	??___fladd+2,w
  2689  05CE  00A2               	movwf	___fladd@b+2
  2690  05CF  0829               	movf	??___fladd+1,w
  2691  05D0  00A1               	movwf	___fladd@b+1
  2692  05D1  0828               	movf	??___fladd,w
  2693  05D2  00A0               	movwf	___fladd@b
  2694  05D3  0A75               	incf	___fladd@bexp,w
  2695  05D4  1903               	btfsc	3,2
  2696  05D5  2DD7               	goto	u2961
  2697  05D6  2DD8               	goto	u2960
  2698  05D7                     u2961:
  2699  05D7  2DDC               	goto	l576
  2700  05D8                     u2960:
  2701  05D8                     l2067:
  2702  05D8  3001               	movlw	1
  2703  05D9  00A8               	movwf	??___fladd
  2704  05DA  0828               	movf	??___fladd,w
  2705  05DB  07F5               	addwf	___fladd@bexp,f
  2706  05DC                     l576:
  2707  05DC  0A75               	incf	___fladd@bexp,w
  2708  05DD  1903               	btfsc	3,2
  2709  05DE  2DE0               	goto	u2971
  2710  05DF  2DE1               	goto	u2970
  2711  05E0                     u2971:
  2712  05E0  2DE6               	goto	l2071
  2713  05E1                     u2970:
  2714  05E1                     l2069:
  2715  05E1  0875               	movf	___fladd@bexp,w
  2716  05E2  1D03               	btfss	3,2
  2717  05E3  2DE5               	goto	u2981
  2718  05E4  2DE6               	goto	u2980
  2719  05E5                     u2981:
  2720  05E5  2DF4               	goto	l2077
  2721  05E6                     u2980:
  2722  05E6                     l2071:
  2723  05E6  3000               	movlw	0
  2724  05E7  00A3               	movwf	___fladd@b+3
  2725  05E8  3000               	movlw	0
  2726  05E9  00A2               	movwf	___fladd@b+2
  2727  05EA  3000               	movlw	0
  2728  05EB  00A1               	movwf	___fladd@b+1
  2729  05EC  3000               	movlw	0
  2730  05ED  00A0               	movwf	___fladd@b
  2731  05EE                     l2073:
  2732  05EE  0875               	movf	___fladd@bexp,w
  2733  05EF  1D03               	btfss	3,2
  2734  05F0  2DF2               	goto	u2991
  2735  05F1  2DF3               	goto	u2990
  2736  05F2                     u2991:
  2737  05F2  2DF4               	goto	l2077
  2738  05F3                     u2990:
  2739  05F3                     l2075:
  2740  05F3  01F3               	clrf	___fladd@signs
  2741  05F4                     l2077:
  2742  05F4  1C75               	btfss	___fladd@bexp,0
  2743  05F5  2DF7               	goto	u3001
  2744  05F6  2DF8               	goto	u3000
  2745  05F7                     u3001:
  2746  05F7  2DFA               	goto	l2081
  2747  05F8                     u3000:
  2748  05F8                     l2079:
  2749  05F8  17A2               	bsf	___fladd@b+2,7
  2750  05F9  2DFE               	goto	l584
  2751  05FA                     l2081:
  2752  05FA  307F               	movlw	127
  2753  05FB  00A8               	movwf	??___fladd
  2754  05FC  0828               	movf	??___fladd,w
  2755  05FD  05A2               	andwf	___fladd@b+2,f
  2756  05FE                     l584:
  2757  05FE  0875               	movf	___fladd@bexp,w
  2758  05FF  00A8               	movwf	??___fladd
  2759  0600  1003               	clrc
  2760  0601  0C28               	rrf	??___fladd,w
  2761  0602  00A9               	movwf	??___fladd+1
  2762  0603  0829               	movf	??___fladd+1,w
  2763  0604  00A3               	movwf	___fladd@b+3
  2764  0605                     l2083:
  2765  0605  1FF3               	btfss	___fladd@signs,7
  2766  0606  2E08               	goto	u3011
  2767  0607  2E09               	goto	u3010
  2768  0608                     u3011:
  2769  0608  2E0A               	goto	l585
  2770  0609                     u3010:
  2771  0609                     l2085:
  2772  0609  17A3               	bsf	___fladd@b+3,7
  2773  060A                     l585:
  2774  060A                     l555:
  2775  060A  0008               	return
  2776  060B                     __end_of___fladd:
  2777                           
  2778                           	psect	text10
  2779  001A                     __ptext10:	
  2780 ;; *************** function ___flmul *****************
  2781 ;; Defined at:
  2782 ;;		line 8 in file "C:\Program Files\Microchip\xc8\v2.32\pic\sources\c90\common\sprcmul.c"
  2783 ;; Parameters:    Size  Location     Type
  2784 ;;  b               4   10[BANK0 ] unsigned char 
  2785 ;;  a               4   14[BANK0 ] unsigned char 
  2786 ;; Auto vars:     Size  Location     Type
  2787 ;;  prod            4   30[BANK0 ] struct .
  2788 ;;  grs             4   24[BANK0 ] unsigned long 
  2789 ;;  temp            2   34[BANK0 ] struct .
  2790 ;;  bexp            1   29[BANK0 ] unsigned char 
  2791 ;;  aexp            1   28[BANK0 ] unsigned char 
  2792 ;;  sign            1   23[BANK0 ] unsigned char 
  2793 ;; Return value:  Size  Location     Type
  2794 ;;                  4   10[BANK0 ] unsigned char 
  2795 ;; Registers used:
  2796 ;;		wreg, status,2, status,0, btemp+1, pclath, cstack
  2797 ;; Tracked objects:
  2798 ;;		On entry : 0/0
  2799 ;;		On exit  : 0/0
  2800 ;;		Unchanged: 0/0
  2801 ;; Data sizes:     COMMON   BANK0   BANK1   BANK3   BANK2
  2802 ;;      Params:         0       8       0       0       0
  2803 ;;      Locals:         0      13       0       0       0
  2804 ;;      Temps:          0       5       0       0       0
  2805 ;;      Totals:         0      26       0       0       0
  2806 ;;Total ram usage:       26 bytes
  2807 ;; Hardware stack levels used: 1
  2808 ;; Hardware stack levels required when called: 2
  2809 ;; This function calls:
  2810 ;;		__Umul8_16
  2811 ;; This function is called by:
  2812 ;;		_main
  2813 ;; This function uses a non-reentrant model
  2814 ;;
  2815                           
  2816                           
  2817                           ;psect for function ___flmul
  2818  001A                     ___flmul:
  2819  001A                     l1685:	
  2820                           ;incstack = 0
  2821                           ; Regs used in ___flmul: [wreg+status,2+status,0+btemp+1+pclath+cstack]
  2822                           
  2823  001A  1283               	bcf	3,5	;RP0=0, select bank0
  2824  001B  1303               	bcf	3,6	;RP1=0, select bank0
  2825  001C  082D               	movf	___flmul@b+3,w
  2826  001D  3980               	andlw	128
  2827  001E  00B2               	movwf	??___flmul
  2828  001F  0832               	movf	??___flmul,w
  2829  0020  00B7               	movwf	___flmul@sign
  2830  0021                     l1687:
  2831  0021  082D               	movf	___flmul@b+3,w
  2832  0022  00B2               	movwf	??___flmul
  2833  0023  0732               	addwf	??___flmul,w
  2834  0024  00B3               	movwf	??___flmul+1
  2835  0025  0833               	movf	??___flmul+1,w
  2836  0026  00BD               	movwf	___flmul@bexp
  2837  0027                     l1689:
  2838  0027  1FAC               	btfss	___flmul@b+2,7
  2839  0028  282A               	goto	u2031
  2840  0029  282B               	goto	u2030
  2841  002A                     u2031:
  2842  002A  282C               	goto	l1693
  2843  002B                     u2030:
  2844  002B                     l1691:
  2845  002B  143D               	bsf	___flmul@bexp,0
  2846  002C                     l1693:
  2847  002C  083D               	movf	___flmul@bexp,w
  2848  002D  1903               	btfsc	3,2
  2849  002E  2830               	goto	u2041
  2850  002F  2831               	goto	u2040
  2851  0030                     u2041:
  2852  0030  2840               	goto	l1701
  2853  0031                     u2040:
  2854  0031                     l1695:
  2855  0031  0A3D               	incf	___flmul@bexp,w
  2856  0032  1D03               	btfss	3,2
  2857  0033  2835               	goto	u2051
  2858  0034  2836               	goto	u2050
  2859  0035                     u2051:
  2860  0035  283E               	goto	l1699
  2861  0036                     u2050:
  2862  0036                     l1697:
  2863  0036  3000               	movlw	0
  2864  0037  00AD               	movwf	___flmul@b+3
  2865  0038  3000               	movlw	0
  2866  0039  00AC               	movwf	___flmul@b+2
  2867  003A  3000               	movlw	0
  2868  003B  00AB               	movwf	___flmul@b+1
  2869  003C  3000               	movlw	0
  2870  003D  00AA               	movwf	___flmul@b
  2871  003E                     l1699:
  2872  003E  17AC               	bsf	___flmul@b+2,7
  2873  003F  2848               	goto	l1703
  2874  0040                     l1701:
  2875  0040  3000               	movlw	0
  2876  0041  00AD               	movwf	___flmul@b+3
  2877  0042  3000               	movlw	0
  2878  0043  00AC               	movwf	___flmul@b+2
  2879  0044  3000               	movlw	0
  2880  0045  00AB               	movwf	___flmul@b+1
  2881  0046  3000               	movlw	0
  2882  0047  00AA               	movwf	___flmul@b
  2883  0048                     l1703:
  2884  0048  0831               	movf	___flmul@a+3,w
  2885  0049  3980               	andlw	128
  2886  004A  00B2               	movwf	??___flmul
  2887  004B  0832               	movf	??___flmul,w
  2888  004C  06B7               	xorwf	___flmul@sign,f
  2889  004D                     l1705:
  2890  004D  0831               	movf	___flmul@a+3,w
  2891  004E  00B2               	movwf	??___flmul
  2892  004F  0732               	addwf	??___flmul,w
  2893  0050  00B3               	movwf	??___flmul+1
  2894  0051  0833               	movf	??___flmul+1,w
  2895  0052  00BC               	movwf	___flmul@aexp
  2896  0053                     l1707:
  2897  0053  1FB0               	btfss	___flmul@a+2,7
  2898  0054  2856               	goto	u2061
  2899  0055  2857               	goto	u2060
  2900  0056                     u2061:
  2901  0056  2858               	goto	l1711
  2902  0057                     u2060:
  2903  0057                     l1709:
  2904  0057  143C               	bsf	___flmul@aexp,0
  2905  0058                     l1711:
  2906  0058  083C               	movf	___flmul@aexp,w
  2907  0059  1903               	btfsc	3,2
  2908  005A  285C               	goto	u2071
  2909  005B  285D               	goto	u2070
  2910  005C                     u2071:
  2911  005C  286C               	goto	l1719
  2912  005D                     u2070:
  2913  005D                     l1713:
  2914  005D  0A3C               	incf	___flmul@aexp,w
  2915  005E  1D03               	btfss	3,2
  2916  005F  2861               	goto	u2081
  2917  0060  2862               	goto	u2080
  2918  0061                     u2081:
  2919  0061  286A               	goto	l1717
  2920  0062                     u2080:
  2921  0062                     l1715:
  2922  0062  3000               	movlw	0
  2923  0063  00B1               	movwf	___flmul@a+3
  2924  0064  3000               	movlw	0
  2925  0065  00B0               	movwf	___flmul@a+2
  2926  0066  3000               	movlw	0
  2927  0067  00AF               	movwf	___flmul@a+1
  2928  0068  3000               	movlw	0
  2929  0069  00AE               	movwf	___flmul@a
  2930  006A                     l1717:
  2931  006A  17B0               	bsf	___flmul@a+2,7
  2932  006B  2874               	goto	l1721
  2933  006C                     l1719:
  2934  006C  3000               	movlw	0
  2935  006D  00B1               	movwf	___flmul@a+3
  2936  006E  3000               	movlw	0
  2937  006F  00B0               	movwf	___flmul@a+2
  2938  0070  3000               	movlw	0
  2939  0071  00AF               	movwf	___flmul@a+1
  2940  0072  3000               	movlw	0
  2941  0073  00AE               	movwf	___flmul@a
  2942  0074                     l1721:
  2943  0074  083C               	movf	___flmul@aexp,w
  2944  0075  1903               	btfsc	3,2
  2945  0076  2878               	goto	u2091
  2946  0077  2879               	goto	u2090
  2947  0078                     u2091:
  2948  0078  287E               	goto	l1725
  2949  0079                     u2090:
  2950  0079                     l1723:
  2951  0079  083D               	movf	___flmul@bexp,w
  2952  007A  1D03               	btfss	3,2
  2953  007B  287D               	goto	u2101
  2954  007C  287E               	goto	u2100
  2955  007D                     u2101:
  2956  007D  2887               	goto	l1729
  2957  007E                     u2100:
  2958  007E                     l1725:
  2959  007E  3000               	movlw	0
  2960  007F  00AD               	movwf	?___flmul+3
  2961  0080  3000               	movlw	0
  2962  0081  00AC               	movwf	?___flmul+2
  2963  0082  3000               	movlw	0
  2964  0083  00AB               	movwf	?___flmul+1
  2965  0084  3000               	movlw	0
  2966  0085  00AA               	movwf	?___flmul
  2967  0086  2B7A               	goto	l638
  2968  0087                     l1729:
  2969  0087  082A               	movf	___flmul@b,w
  2970  0088  00B2               	movwf	??___flmul
  2971  0089  0832               	movf	??___flmul,w
  2972  008A  00F3               	movwf	__Umul8_16@multiplicand
  2973  008B  0830               	movf	___flmul@a+2,w
  2974  008C  120A  158A  2708  120A  118A  	fcall	__Umul8_16
  2975  0091  0874               	movf	?__Umul8_16+1,w
  2976  0092  1283               	bcf	3,5	;RP0=0, select bank0
  2977  0093  1303               	bcf	3,6	;RP1=0, select bank0
  2978  0094  00C3               	movwf	___flmul@temp+1
  2979  0095  0873               	movf	?__Umul8_16,w
  2980  0096  00C2               	movwf	___flmul@temp
  2981  0097                     l1731:
  2982  0097  0842               	movf	___flmul@temp,w
  2983  0098  00B2               	movwf	??___flmul
  2984  0099  01B3               	clrf	??___flmul+1
  2985  009A  01B4               	clrf	??___flmul+2
  2986  009B  01B5               	clrf	??___flmul+3
  2987  009C  0835               	movf	??___flmul+3,w
  2988  009D  00BB               	movwf	___flmul@grs+3
  2989  009E  0834               	movf	??___flmul+2,w
  2990  009F  00BA               	movwf	___flmul@grs+2
  2991  00A0  0833               	movf	??___flmul+1,w
  2992  00A1  00B9               	movwf	___flmul@grs+1
  2993  00A2  0832               	movf	??___flmul,w
  2994  00A3  00B8               	movwf	___flmul@grs
  2995  00A4                     l1733:
  2996  00A4  0843               	movf	___flmul@temp+1,w
  2997  00A5  00B2               	movwf	??___flmul
  2998  00A6  01B3               	clrf	??___flmul+1
  2999  00A7  01B4               	clrf	??___flmul+2
  3000  00A8  01B5               	clrf	??___flmul+3
  3001  00A9  0835               	movf	??___flmul+3,w
  3002  00AA  00C1               	movwf	___flmul@prod+3
  3003  00AB  0834               	movf	??___flmul+2,w
  3004  00AC  00C0               	movwf	___flmul@prod+2
  3005  00AD  0833               	movf	??___flmul+1,w
  3006  00AE  00BF               	movwf	___flmul@prod+1
  3007  00AF  0832               	movf	??___flmul,w
  3008  00B0  00BE               	movwf	___flmul@prod
  3009  00B1  082B               	movf	___flmul@b+1,w
  3010  00B2  00B2               	movwf	??___flmul
  3011  00B3  0832               	movf	??___flmul,w
  3012  00B4  00F3               	movwf	__Umul8_16@multiplicand
  3013  00B5  082F               	movf	___flmul@a+1,w
  3014  00B6  120A  158A  2708  120A  118A  	fcall	__Umul8_16
  3015  00BB  0874               	movf	?__Umul8_16+1,w
  3016  00BC  1283               	bcf	3,5	;RP0=0, select bank0
  3017  00BD  1303               	bcf	3,6	;RP1=0, select bank0
  3018  00BE  00C3               	movwf	___flmul@temp+1
  3019  00BF  0873               	movf	?__Umul8_16,w
  3020  00C0  00C2               	movwf	___flmul@temp
  3021  00C1                     l1735:
  3022  00C1  0842               	movf	___flmul@temp,w
  3023  00C2  00B2               	movwf	??___flmul
  3024  00C3  01B3               	clrf	??___flmul+1
  3025  00C4  01B4               	clrf	??___flmul+2
  3026  00C5  01B5               	clrf	??___flmul+3
  3027  00C6  0832               	movf	??___flmul,w
  3028  00C7  07B8               	addwf	___flmul@grs,f
  3029  00C8  0833               	movf	??___flmul+1,w
  3030  00C9  1103               	clrz
  3031  00CA  1803               	skipnc
  3032  00CB  3E01               	addlw	1
  3033  00CC  1903               	skipnz
  3034  00CD  28CF               	goto	u2111
  3035  00CE  07B9               	addwf	___flmul@grs+1,f
  3036  00CF                     u2111:
  3037  00CF  0834               	movf	??___flmul+2,w
  3038  00D0  1103               	clrz
  3039  00D1  1803               	skipnc
  3040  00D2  3E01               	addlw	1
  3041  00D3  1903               	skipnz
  3042  00D4  28D6               	goto	u2112
  3043  00D5  07BA               	addwf	___flmul@grs+2,f
  3044  00D6                     u2112:
  3045  00D6  0835               	movf	??___flmul+3,w
  3046  00D7  1103               	clrz
  3047  00D8  1803               	skipnc
  3048  00D9  3E01               	addlw	1
  3049  00DA  1903               	skipnz
  3050  00DB  28DD               	goto	u2113
  3051  00DC  07BB               	addwf	___flmul@grs+3,f
  3052  00DD                     u2113:
  3053  00DD                     l1737:
  3054  00DD  0843               	movf	___flmul@temp+1,w
  3055  00DE  00B2               	movwf	??___flmul
  3056  00DF  01B3               	clrf	??___flmul+1
  3057  00E0  01B4               	clrf	??___flmul+2
  3058  00E1  01B5               	clrf	??___flmul+3
  3059  00E2  0832               	movf	??___flmul,w
  3060  00E3  07BE               	addwf	___flmul@prod,f
  3061  00E4  0833               	movf	??___flmul+1,w
  3062  00E5  1103               	clrz
  3063  00E6  1803               	skipnc
  3064  00E7  3E01               	addlw	1
  3065  00E8  1903               	skipnz
  3066  00E9  28EB               	goto	u2121
  3067  00EA  07BF               	addwf	___flmul@prod+1,f
  3068  00EB                     u2121:
  3069  00EB  0834               	movf	??___flmul+2,w
  3070  00EC  1103               	clrz
  3071  00ED  1803               	skipnc
  3072  00EE  3E01               	addlw	1
  3073  00EF  1903               	skipnz
  3074  00F0  28F2               	goto	u2122
  3075  00F1  07C0               	addwf	___flmul@prod+2,f
  3076  00F2                     u2122:
  3077  00F2  0835               	movf	??___flmul+3,w
  3078  00F3  1103               	clrz
  3079  00F4  1803               	skipnc
  3080  00F5  3E01               	addlw	1
  3081  00F6  1903               	skipnz
  3082  00F7  28F9               	goto	u2123
  3083  00F8  07C1               	addwf	___flmul@prod+3,f
  3084  00F9                     u2123:
  3085  00F9  082C               	movf	___flmul@b+2,w
  3086  00FA  00B2               	movwf	??___flmul
  3087  00FB  0832               	movf	??___flmul,w
  3088  00FC  00F3               	movwf	__Umul8_16@multiplicand
  3089  00FD  082E               	movf	___flmul@a,w
  3090  00FE  120A  158A  2708  120A  118A  	fcall	__Umul8_16
  3091  0103  0874               	movf	?__Umul8_16+1,w
  3092  0104  1283               	bcf	3,5	;RP0=0, select bank0
  3093  0105  1303               	bcf	3,6	;RP1=0, select bank0
  3094  0106  00C3               	movwf	___flmul@temp+1
  3095  0107  0873               	movf	?__Umul8_16,w
  3096  0108  00C2               	movwf	___flmul@temp
  3097  0109                     l1739:
  3098  0109  0842               	movf	___flmul@temp,w
  3099  010A  00B2               	movwf	??___flmul
  3100  010B  01B3               	clrf	??___flmul+1
  3101  010C  01B4               	clrf	??___flmul+2
  3102  010D  01B5               	clrf	??___flmul+3
  3103  010E  0832               	movf	??___flmul,w
  3104  010F  07B8               	addwf	___flmul@grs,f
  3105  0110  0833               	movf	??___flmul+1,w
  3106  0111  1103               	clrz
  3107  0112  1803               	skipnc
  3108  0113  3E01               	addlw	1
  3109  0114  1903               	skipnz
  3110  0115  2917               	goto	u2131
  3111  0116  07B9               	addwf	___flmul@grs+1,f
  3112  0117                     u2131:
  3113  0117  0834               	movf	??___flmul+2,w
  3114  0118  1103               	clrz
  3115  0119  1803               	skipnc
  3116  011A  3E01               	addlw	1
  3117  011B  1903               	skipnz
  3118  011C  291E               	goto	u2132
  3119  011D  07BA               	addwf	___flmul@grs+2,f
  3120  011E                     u2132:
  3121  011E  0835               	movf	??___flmul+3,w
  3122  011F  1103               	clrz
  3123  0120  1803               	skipnc
  3124  0121  3E01               	addlw	1
  3125  0122  1903               	skipnz
  3126  0123  2925               	goto	u2133
  3127  0124  07BB               	addwf	___flmul@grs+3,f
  3128  0125                     u2133:
  3129  0125                     l1741:
  3130  0125  0843               	movf	___flmul@temp+1,w
  3131  0126  00B2               	movwf	??___flmul
  3132  0127  01B3               	clrf	??___flmul+1
  3133  0128  01B4               	clrf	??___flmul+2
  3134  0129  01B5               	clrf	??___flmul+3
  3135  012A  0832               	movf	??___flmul,w
  3136  012B  07BE               	addwf	___flmul@prod,f
  3137  012C  0833               	movf	??___flmul+1,w
  3138  012D  1103               	clrz
  3139  012E  1803               	skipnc
  3140  012F  3E01               	addlw	1
  3141  0130  1903               	skipnz
  3142  0131  2933               	goto	u2141
  3143  0132  07BF               	addwf	___flmul@prod+1,f
  3144  0133                     u2141:
  3145  0133  0834               	movf	??___flmul+2,w
  3146  0134  1103               	clrz
  3147  0135  1803               	skipnc
  3148  0136  3E01               	addlw	1
  3149  0137  1903               	skipnz
  3150  0138  293A               	goto	u2142
  3151  0139  07C0               	addwf	___flmul@prod+2,f
  3152  013A                     u2142:
  3153  013A  0835               	movf	??___flmul+3,w
  3154  013B  1103               	clrz
  3155  013C  1803               	skipnc
  3156  013D  3E01               	addlw	1
  3157  013E  1903               	skipnz
  3158  013F  2941               	goto	u2143
  3159  0140  07C1               	addwf	___flmul@prod+3,f
  3160  0141                     u2143:
  3161  0141                     l1743:
  3162  0141  3008               	movlw	8
  3163  0142  00B2               	movwf	??___flmul
  3164  0143                     u2155:
  3165  0143  1003               	clrc
  3166  0144  0DB8               	rlf	___flmul@grs,f
  3167  0145  0DB9               	rlf	___flmul@grs+1,f
  3168  0146  0DBA               	rlf	___flmul@grs+2,f
  3169  0147  0DBB               	rlf	___flmul@grs+3,f
  3170  0148  0BB2               	decfsz	??___flmul,f
  3171  0149  2943               	goto	u2155
  3172  014A                     l1745:
  3173  014A  082B               	movf	___flmul@b+1,w
  3174  014B  00B2               	movwf	??___flmul
  3175  014C  0832               	movf	??___flmul,w
  3176  014D  00F3               	movwf	__Umul8_16@multiplicand
  3177  014E  082E               	movf	___flmul@a,w
  3178  014F  120A  158A  2708  120A  118A  	fcall	__Umul8_16
  3179  0154  0874               	movf	?__Umul8_16+1,w
  3180  0155  1283               	bcf	3,5	;RP0=0, select bank0
  3181  0156  1303               	bcf	3,6	;RP1=0, select bank0
  3182  0157  00C3               	movwf	___flmul@temp+1
  3183  0158  0873               	movf	?__Umul8_16,w
  3184  0159  00C2               	movwf	___flmul@temp
  3185  015A                     l1747:
  3186  015A  0842               	movf	___flmul@temp,w
  3187  015B  00B2               	movwf	??___flmul
  3188  015C  0843               	movf	___flmul@temp+1,w
  3189  015D  00B3               	movwf	??___flmul+1
  3190  015E  01B4               	clrf	??___flmul+2
  3191  015F  01B5               	clrf	??___flmul+3
  3192  0160  0832               	movf	??___flmul,w
  3193  0161  07B8               	addwf	___flmul@grs,f
  3194  0162  0833               	movf	??___flmul+1,w
  3195  0163  1103               	clrz
  3196  0164  1803               	skipnc
  3197  0165  3E01               	addlw	1
  3198  0166  1903               	skipnz
  3199  0167  2969               	goto	u2161
  3200  0168  07B9               	addwf	___flmul@grs+1,f
  3201  0169                     u2161:
  3202  0169  0834               	movf	??___flmul+2,w
  3203  016A  1103               	clrz
  3204  016B  1803               	skipnc
  3205  016C  3E01               	addlw	1
  3206  016D  1903               	skipnz
  3207  016E  2970               	goto	u2162
  3208  016F  07BA               	addwf	___flmul@grs+2,f
  3209  0170                     u2162:
  3210  0170  0835               	movf	??___flmul+3,w
  3211  0171  1103               	clrz
  3212  0172  1803               	skipnc
  3213  0173  3E01               	addlw	1
  3214  0174  1903               	skipnz
  3215  0175  2977               	goto	u2163
  3216  0176  07BB               	addwf	___flmul@grs+3,f
  3217  0177                     u2163:
  3218  0177                     l1749:
  3219  0177  082A               	movf	___flmul@b,w
  3220  0178  00B2               	movwf	??___flmul
  3221  0179  0832               	movf	??___flmul,w
  3222  017A  00F3               	movwf	__Umul8_16@multiplicand
  3223  017B  082F               	movf	___flmul@a+1,w
  3224  017C  120A  158A  2708  120A  118A  	fcall	__Umul8_16
  3225  0181  0874               	movf	?__Umul8_16+1,w
  3226  0182  1283               	bcf	3,5	;RP0=0, select bank0
  3227  0183  1303               	bcf	3,6	;RP1=0, select bank0
  3228  0184  00C3               	movwf	___flmul@temp+1
  3229  0185  0873               	movf	?__Umul8_16,w
  3230  0186  00C2               	movwf	___flmul@temp
  3231  0187                     l1751:
  3232  0187  0842               	movf	___flmul@temp,w
  3233  0188  00B2               	movwf	??___flmul
  3234  0189  0843               	movf	___flmul@temp+1,w
  3235  018A  00B3               	movwf	??___flmul+1
  3236  018B  01B4               	clrf	??___flmul+2
  3237  018C  01B5               	clrf	??___flmul+3
  3238  018D  0832               	movf	??___flmul,w
  3239  018E  07B8               	addwf	___flmul@grs,f
  3240  018F  0833               	movf	??___flmul+1,w
  3241  0190  1103               	clrz
  3242  0191  1803               	skipnc
  3243  0192  3E01               	addlw	1
  3244  0193  1903               	skipnz
  3245  0194  2996               	goto	u2171
  3246  0195  07B9               	addwf	___flmul@grs+1,f
  3247  0196                     u2171:
  3248  0196  0834               	movf	??___flmul+2,w
  3249  0197  1103               	clrz
  3250  0198  1803               	skipnc
  3251  0199  3E01               	addlw	1
  3252  019A  1903               	skipnz
  3253  019B  299D               	goto	u2172
  3254  019C  07BA               	addwf	___flmul@grs+2,f
  3255  019D                     u2172:
  3256  019D  0835               	movf	??___flmul+3,w
  3257  019E  1103               	clrz
  3258  019F  1803               	skipnc
  3259  01A0  3E01               	addlw	1
  3260  01A1  1903               	skipnz
  3261  01A2  29A4               	goto	u2173
  3262  01A3  07BB               	addwf	___flmul@grs+3,f
  3263  01A4                     u2173:
  3264  01A4                     l1753:
  3265  01A4  3008               	movlw	8
  3266  01A5  00B2               	movwf	??___flmul
  3267  01A6                     u2185:
  3268  01A6  1003               	clrc
  3269  01A7  0DB8               	rlf	___flmul@grs,f
  3270  01A8  0DB9               	rlf	___flmul@grs+1,f
  3271  01A9  0DBA               	rlf	___flmul@grs+2,f
  3272  01AA  0DBB               	rlf	___flmul@grs+3,f
  3273  01AB  0BB2               	decfsz	??___flmul,f
  3274  01AC  29A6               	goto	u2185
  3275  01AD  082A               	movf	___flmul@b,w
  3276  01AE  00B2               	movwf	??___flmul
  3277  01AF  0832               	movf	??___flmul,w
  3278  01B0  00F3               	movwf	__Umul8_16@multiplicand
  3279  01B1  082E               	movf	___flmul@a,w
  3280  01B2  120A  158A  2708  120A  118A  	fcall	__Umul8_16
  3281  01B7  0874               	movf	?__Umul8_16+1,w
  3282  01B8  1283               	bcf	3,5	;RP0=0, select bank0
  3283  01B9  1303               	bcf	3,6	;RP1=0, select bank0
  3284  01BA  00C3               	movwf	___flmul@temp+1
  3285  01BB  0873               	movf	?__Umul8_16,w
  3286  01BC  00C2               	movwf	___flmul@temp
  3287  01BD                     l1755:
  3288  01BD  0842               	movf	___flmul@temp,w
  3289  01BE  00B2               	movwf	??___flmul
  3290  01BF  0843               	movf	___flmul@temp+1,w
  3291  01C0  00B3               	movwf	??___flmul+1
  3292  01C1  01B4               	clrf	??___flmul+2
  3293  01C2  01B5               	clrf	??___flmul+3
  3294  01C3  0832               	movf	??___flmul,w
  3295  01C4  07B8               	addwf	___flmul@grs,f
  3296  01C5  0833               	movf	??___flmul+1,w
  3297  01C6  1103               	clrz
  3298  01C7  1803               	skipnc
  3299  01C8  3E01               	addlw	1
  3300  01C9  1903               	skipnz
  3301  01CA  29CC               	goto	u2191
  3302  01CB  07B9               	addwf	___flmul@grs+1,f
  3303  01CC                     u2191:
  3304  01CC  0834               	movf	??___flmul+2,w
  3305  01CD  1103               	clrz
  3306  01CE  1803               	skipnc
  3307  01CF  3E01               	addlw	1
  3308  01D0  1903               	skipnz
  3309  01D1  29D3               	goto	u2192
  3310  01D2  07BA               	addwf	___flmul@grs+2,f
  3311  01D3                     u2192:
  3312  01D3  0835               	movf	??___flmul+3,w
  3313  01D4  1103               	clrz
  3314  01D5  1803               	skipnc
  3315  01D6  3E01               	addlw	1
  3316  01D7  1903               	skipnz
  3317  01D8  29DA               	goto	u2193
  3318  01D9  07BB               	addwf	___flmul@grs+3,f
  3319  01DA                     u2193:
  3320  01DA                     l1757:
  3321  01DA  082B               	movf	___flmul@b+1,w
  3322  01DB  00B2               	movwf	??___flmul
  3323  01DC  0832               	movf	??___flmul,w
  3324  01DD  00F3               	movwf	__Umul8_16@multiplicand
  3325  01DE  0830               	movf	___flmul@a+2,w
  3326  01DF  120A  158A  2708  120A  118A  	fcall	__Umul8_16
  3327  01E4  0874               	movf	?__Umul8_16+1,w
  3328  01E5  1283               	bcf	3,5	;RP0=0, select bank0
  3329  01E6  1303               	bcf	3,6	;RP1=0, select bank0
  3330  01E7  00C3               	movwf	___flmul@temp+1
  3331  01E8  0873               	movf	?__Umul8_16,w
  3332  01E9  00C2               	movwf	___flmul@temp
  3333  01EA  0842               	movf	___flmul@temp,w
  3334  01EB  00B2               	movwf	??___flmul
  3335  01EC  0843               	movf	___flmul@temp+1,w
  3336  01ED  00B3               	movwf	??___flmul+1
  3337  01EE  01B4               	clrf	??___flmul+2
  3338  01EF  01B5               	clrf	??___flmul+3
  3339  01F0  0832               	movf	??___flmul,w
  3340  01F1  07BE               	addwf	___flmul@prod,f
  3341  01F2  0833               	movf	??___flmul+1,w
  3342  01F3  1103               	clrz
  3343  01F4  1803               	skipnc
  3344  01F5  3E01               	addlw	1
  3345  01F6  1903               	skipnz
  3346  01F7  29F9               	goto	u2201
  3347  01F8  07BF               	addwf	___flmul@prod+1,f
  3348  01F9                     u2201:
  3349  01F9  0834               	movf	??___flmul+2,w
  3350  01FA  1103               	clrz
  3351  01FB  1803               	skipnc
  3352  01FC  3E01               	addlw	1
  3353  01FD  1903               	skipnz
  3354  01FE  2A00               	goto	u2202
  3355  01FF  07C0               	addwf	___flmul@prod+2,f
  3356  0200                     u2202:
  3357  0200  0835               	movf	??___flmul+3,w
  3358  0201  1103               	clrz
  3359  0202  1803               	skipnc
  3360  0203  3E01               	addlw	1
  3361  0204  1903               	skipnz
  3362  0205  2A07               	goto	u2203
  3363  0206  07C1               	addwf	___flmul@prod+3,f
  3364  0207                     u2203:
  3365  0207                     l1759:
  3366  0207  082C               	movf	___flmul@b+2,w
  3367  0208  00B2               	movwf	??___flmul
  3368  0209  0832               	movf	??___flmul,w
  3369  020A  00F3               	movwf	__Umul8_16@multiplicand
  3370  020B  082F               	movf	___flmul@a+1,w
  3371  020C  120A  158A  2708  120A  118A  	fcall	__Umul8_16
  3372  0211  0874               	movf	?__Umul8_16+1,w
  3373  0212  1283               	bcf	3,5	;RP0=0, select bank0
  3374  0213  1303               	bcf	3,6	;RP1=0, select bank0
  3375  0214  00C3               	movwf	___flmul@temp+1
  3376  0215  0873               	movf	?__Umul8_16,w
  3377  0216  00C2               	movwf	___flmul@temp
  3378  0217                     l1761:
  3379  0217  0842               	movf	___flmul@temp,w
  3380  0218  00B2               	movwf	??___flmul
  3381  0219  0843               	movf	___flmul@temp+1,w
  3382  021A  00B3               	movwf	??___flmul+1
  3383  021B  01B4               	clrf	??___flmul+2
  3384  021C  01B5               	clrf	??___flmul+3
  3385  021D  0832               	movf	??___flmul,w
  3386  021E  07BE               	addwf	___flmul@prod,f
  3387  021F  0833               	movf	??___flmul+1,w
  3388  0220  1103               	clrz
  3389  0221  1803               	skipnc
  3390  0222  3E01               	addlw	1
  3391  0223  1903               	skipnz
  3392  0224  2A26               	goto	u2211
  3393  0225  07BF               	addwf	___flmul@prod+1,f
  3394  0226                     u2211:
  3395  0226  0834               	movf	??___flmul+2,w
  3396  0227  1103               	clrz
  3397  0228  1803               	skipnc
  3398  0229  3E01               	addlw	1
  3399  022A  1903               	skipnz
  3400  022B  2A2D               	goto	u2212
  3401  022C  07C0               	addwf	___flmul@prod+2,f
  3402  022D                     u2212:
  3403  022D  0835               	movf	??___flmul+3,w
  3404  022E  1103               	clrz
  3405  022F  1803               	skipnc
  3406  0230  3E01               	addlw	1
  3407  0231  1903               	skipnz
  3408  0232  2A34               	goto	u2213
  3409  0233  07C1               	addwf	___flmul@prod+3,f
  3410  0234                     u2213:
  3411  0234  082C               	movf	___flmul@b+2,w
  3412  0235  00B2               	movwf	??___flmul
  3413  0236  0832               	movf	??___flmul,w
  3414  0237  00F3               	movwf	__Umul8_16@multiplicand
  3415  0238  0830               	movf	___flmul@a+2,w
  3416  0239  120A  158A  2708  120A  118A  	fcall	__Umul8_16
  3417  023E  0874               	movf	?__Umul8_16+1,w
  3418  023F  1283               	bcf	3,5	;RP0=0, select bank0
  3419  0240  1303               	bcf	3,6	;RP1=0, select bank0
  3420  0241  00C3               	movwf	___flmul@temp+1
  3421  0242  0873               	movf	?__Umul8_16,w
  3422  0243  00C2               	movwf	___flmul@temp
  3423  0244                     l1763:
  3424  0244  0842               	movf	___flmul@temp,w
  3425  0245  00B2               	movwf	??___flmul
  3426  0246  0843               	movf	___flmul@temp+1,w
  3427  0247  00B3               	movwf	??___flmul+1
  3428  0248  01B4               	clrf	??___flmul+2
  3429  0249  01B5               	clrf	??___flmul+3
  3430  024A  3008               	movlw	8
  3431  024B                     u2225:
  3432  024B  1003               	clrc
  3433  024C  0DB2               	rlf	??___flmul,f
  3434  024D  0DB3               	rlf	??___flmul+1,f
  3435  024E  0DB4               	rlf	??___flmul+2,f
  3436  024F  0DB5               	rlf	??___flmul+3,f
  3437  0250                     u2220:
  3438  0250  3EFF               	addlw	-1
  3439  0251  1D03               	skipz
  3440  0252  2A4B               	goto	u2225
  3441  0253  0832               	movf	??___flmul,w
  3442  0254  07BE               	addwf	___flmul@prod,f
  3443  0255  0833               	movf	??___flmul+1,w
  3444  0256  1103               	clrz
  3445  0257  1803               	skipnc
  3446  0258  3E01               	addlw	1
  3447  0259  1903               	skipnz
  3448  025A  2A5C               	goto	u2231
  3449  025B  07BF               	addwf	___flmul@prod+1,f
  3450  025C                     u2231:
  3451  025C  0834               	movf	??___flmul+2,w
  3452  025D  1103               	clrz
  3453  025E  1803               	skipnc
  3454  025F  3E01               	addlw	1
  3455  0260  1903               	skipnz
  3456  0261  2A63               	goto	u2232
  3457  0262  07C0               	addwf	___flmul@prod+2,f
  3458  0263                     u2232:
  3459  0263  0835               	movf	??___flmul+3,w
  3460  0264  1103               	clrz
  3461  0265  1803               	skipnc
  3462  0266  3E01               	addlw	1
  3463  0267  1903               	skipnz
  3464  0268  2A6A               	goto	u2233
  3465  0269  07C1               	addwf	___flmul@prod+3,f
  3466  026A                     u2233:
  3467  026A                     l1765:
  3468  026A  0838               	movf	___flmul@grs,w
  3469  026B  00B2               	movwf	??___flmul
  3470  026C  0839               	movf	___flmul@grs+1,w
  3471  026D  00B3               	movwf	??___flmul+1
  3472  026E  083A               	movf	___flmul@grs+2,w
  3473  026F  00B4               	movwf	??___flmul+2
  3474  0270  083B               	movf	___flmul@grs+3,w
  3475  0271  00B5               	movwf	??___flmul+3
  3476  0272  3018               	movlw	24
  3477  0273                     u2245:
  3478  0273  1003               	clrc
  3479  0274  0CB5               	rrf	??___flmul+3,f
  3480  0275  0CB4               	rrf	??___flmul+2,f
  3481  0276  0CB3               	rrf	??___flmul+1,f
  3482  0277  0CB2               	rrf	??___flmul,f
  3483  0278                     u2240:
  3484  0278  3EFF               	addlw	-1
  3485  0279  1D03               	skipz
  3486  027A  2A73               	goto	u2245
  3487  027B  0832               	movf	??___flmul,w
  3488  027C  07BE               	addwf	___flmul@prod,f
  3489  027D  0833               	movf	??___flmul+1,w
  3490  027E  1103               	clrz
  3491  027F  1803               	skipnc
  3492  0280  3E01               	addlw	1
  3493  0281  1903               	skipnz
  3494  0282  2A84               	goto	u2251
  3495  0283  07BF               	addwf	___flmul@prod+1,f
  3496  0284                     u2251:
  3497  0284  0834               	movf	??___flmul+2,w
  3498  0285  1103               	clrz
  3499  0286  1803               	skipnc
  3500  0287  3E01               	addlw	1
  3501  0288  1903               	skipnz
  3502  0289  2A8B               	goto	u2252
  3503  028A  07C0               	addwf	___flmul@prod+2,f
  3504  028B                     u2252:
  3505  028B  0835               	movf	??___flmul+3,w
  3506  028C  1103               	clrz
  3507  028D  1803               	skipnc
  3508  028E  3E01               	addlw	1
  3509  028F  1903               	skipnz
  3510  0290  2A92               	goto	u2253
  3511  0291  07C1               	addwf	___flmul@prod+3,f
  3512  0292                     u2253:
  3513  0292                     l1767:
  3514  0292  3008               	movlw	8
  3515  0293  00B2               	movwf	??___flmul
  3516  0294                     u2265:
  3517  0294  1003               	clrc
  3518  0295  0DB8               	rlf	___flmul@grs,f
  3519  0296  0DB9               	rlf	___flmul@grs+1,f
  3520  0297  0DBA               	rlf	___flmul@grs+2,f
  3521  0298  0DBB               	rlf	___flmul@grs+3,f
  3522  0299  0BB2               	decfsz	??___flmul,f
  3523  029A  2A94               	goto	u2265
  3524  029B                     l1769:
  3525  029B  083D               	movf	___flmul@bexp,w
  3526  029C  073C               	addwf	___flmul@aexp,w
  3527  029D  00B2               	movwf	??___flmul
  3528  029E  01B3               	clrf	??___flmul+1
  3529  029F  0DB3               	rlf	??___flmul+1,f
  3530  02A0  0832               	movf	??___flmul,w
  3531  02A1  3E82               	addlw	130
  3532  02A2  00C2               	movwf	___flmul@temp
  3533  02A3  0833               	movf	??___flmul+1,w
  3534  02A4  1803               	skipnc
  3535  02A5  3E01               	addlw	1
  3536  02A6  3EFF               	addlw	255
  3537  02A7  00C3               	movwf	___flmul@temp+1
  3538  02A8  2AC6               	goto	l1781
  3539  02A9                     l1771:
  3540  02A9  3001               	movlw	1
  3541  02AA  00B2               	movwf	??___flmul
  3542  02AB                     u2275:
  3543  02AB  1003               	clrc
  3544  02AC  0DBE               	rlf	___flmul@prod,f
  3545  02AD  0DBF               	rlf	___flmul@prod+1,f
  3546  02AE  0DC0               	rlf	___flmul@prod+2,f
  3547  02AF  0DC1               	rlf	___flmul@prod+3,f
  3548  02B0  0BB2               	decfsz	??___flmul,f
  3549  02B1  2AAB               	goto	u2275
  3550  02B2                     l1773:
  3551  02B2  1FBB               	btfss	___flmul@grs+3,7
  3552  02B3  2AB5               	goto	u2281
  3553  02B4  2AB6               	goto	u2280
  3554  02B5                     u2281:
  3555  02B5  2AB7               	goto	l1777
  3556  02B6                     u2280:
  3557  02B6                     l1775:
  3558  02B6  143E               	bsf	___flmul@prod,0
  3559  02B7                     l1777:
  3560  02B7  3001               	movlw	1
  3561  02B8  00B2               	movwf	??___flmul
  3562  02B9                     u2295:
  3563  02B9  1003               	clrc
  3564  02BA  0DB8               	rlf	___flmul@grs,f
  3565  02BB  0DB9               	rlf	___flmul@grs+1,f
  3566  02BC  0DBA               	rlf	___flmul@grs+2,f
  3567  02BD  0DBB               	rlf	___flmul@grs+3,f
  3568  02BE  0BB2               	decfsz	??___flmul,f
  3569  02BF  2AB9               	goto	u2295
  3570  02C0                     l1779:
  3571  02C0  30FF               	movlw	255
  3572  02C1  07C2               	addwf	___flmul@temp,f
  3573  02C2  1803               	skipnc
  3574  02C3  0AC3               	incf	___flmul@temp+1,f
  3575  02C4  30FF               	movlw	255
  3576  02C5  07C3               	addwf	___flmul@temp+1,f
  3577  02C6                     l1781:
  3578  02C6  1FC0               	btfss	___flmul@prod+2,7
  3579  02C7  2AC9               	goto	u2301
  3580  02C8  2ACA               	goto	u2300
  3581  02C9                     u2301:
  3582  02C9  2AA9               	goto	l1771
  3583  02CA                     u2300:
  3584  02CA                     l1783:
  3585  02CA  01BC               	clrf	___flmul@aexp
  3586  02CB                     l1785:
  3587  02CB  1FBB               	btfss	___flmul@grs+3,7
  3588  02CC  2ACE               	goto	u2311
  3589  02CD  2ACF               	goto	u2310
  3590  02CE                     u2311:
  3591  02CE  2AEB               	goto	l1793
  3592  02CF                     u2310:
  3593  02CF                     l1787:
  3594  02CF  30FF               	movlw	255
  3595  02D0  0538               	andwf	___flmul@grs,w
  3596  02D1  00B2               	movwf	??___flmul
  3597  02D2  30FF               	movlw	255
  3598  02D3  0539               	andwf	___flmul@grs+1,w
  3599  02D4  00B3               	movwf	??___flmul+1
  3600  02D5  30FF               	movlw	255
  3601  02D6  053A               	andwf	___flmul@grs+2,w
  3602  02D7  00B4               	movwf	??___flmul+2
  3603  02D8  307F               	movlw	127
  3604  02D9  053B               	andwf	___flmul@grs+3,w
  3605  02DA  00B5               	movwf	??___flmul+3
  3606  02DB  0835               	movf	??___flmul+3,w
  3607  02DC  0434               	iorwf	??___flmul+2,w
  3608  02DD  0433               	iorwf	??___flmul+1,w
  3609  02DE  0432               	iorwf	??___flmul,w
  3610  02DF  1903               	skipnz
  3611  02E0  2AE2               	goto	u2321
  3612  02E1  2AE3               	goto	u2320
  3613  02E2                     u2321:
  3614  02E2  2AE6               	goto	l644
  3615  02E3                     u2320:
  3616  02E3                     l1789:
  3617  02E3  01BC               	clrf	___flmul@aexp
  3618  02E4  0ABC               	incf	___flmul@aexp,f
  3619  02E5  2AEB               	goto	l1793
  3620  02E6                     l644:
  3621  02E6  1C3E               	btfss	___flmul@prod,0
  3622  02E7  2AE9               	goto	u2331
  3623  02E8  2AEA               	goto	u2330
  3624  02E9                     u2331:
  3625  02E9  2AEB               	goto	l1793
  3626  02EA                     u2330:
  3627  02EA  2AE3               	goto	l1789
  3628  02EB                     l1793:
  3629  02EB  083C               	movf	___flmul@aexp,w
  3630  02EC  1903               	btfsc	3,2
  3631  02ED  2AEF               	goto	u2341
  3632  02EE  2AF0               	goto	u2340
  3633  02EF                     u2341:
  3634  02EF  2B21               	goto	l1803
  3635  02F0                     u2340:
  3636  02F0                     l1795:
  3637  02F0  3001               	movlw	1
  3638  02F1  07BE               	addwf	___flmul@prod,f
  3639  02F2  3000               	movlw	0
  3640  02F3  1803               	skipnc
  3641  02F4  3001               	movlw	1
  3642  02F5  07BF               	addwf	___flmul@prod+1,f
  3643  02F6  3000               	movlw	0
  3644  02F7  1803               	skipnc
  3645  02F8  3001               	movlw	1
  3646  02F9  07C0               	addwf	___flmul@prod+2,f
  3647  02FA  3000               	movlw	0
  3648  02FB  1803               	skipnc
  3649  02FC  3001               	movlw	1
  3650  02FD  07C1               	addwf	___flmul@prod+3,f
  3651  02FE                     l1797:
  3652  02FE  1C41               	btfss	___flmul@prod+3,0
  3653  02FF  2B01               	goto	u2351
  3654  0300  2B02               	goto	u2350
  3655  0301                     u2351:
  3656  0301  2B21               	goto	l1803
  3657  0302                     u2350:
  3658  0302                     l1799:
  3659  0302  083E               	movf	___flmul@prod,w
  3660  0303  00B2               	movwf	??___flmul
  3661  0304  083F               	movf	___flmul@prod+1,w
  3662  0305  00B3               	movwf	??___flmul+1
  3663  0306  0840               	movf	___flmul@prod+2,w
  3664  0307  00B4               	movwf	??___flmul+2
  3665  0308  0841               	movf	___flmul@prod+3,w
  3666  0309  00B5               	movwf	??___flmul+3
  3667  030A  3001               	movlw	1
  3668  030B  00B6               	movwf	??___flmul+4
  3669  030C                     u2365:
  3670  030C  0D35               	rlf	??___flmul+3,w
  3671  030D  0CB5               	rrf	??___flmul+3,f
  3672  030E  0CB4               	rrf	??___flmul+2,f
  3673  030F  0CB3               	rrf	??___flmul+1,f
  3674  0310  0CB2               	rrf	??___flmul,f
  3675  0311                     u2360:
  3676  0311  0BB6               	decfsz	??___flmul+4,f
  3677  0312  2B0C               	goto	u2365
  3678  0313  0835               	movf	??___flmul+3,w
  3679  0314  00C1               	movwf	___flmul@prod+3
  3680  0315  0834               	movf	??___flmul+2,w
  3681  0316  00C0               	movwf	___flmul@prod+2
  3682  0317  0833               	movf	??___flmul+1,w
  3683  0318  00BF               	movwf	___flmul@prod+1
  3684  0319  0832               	movf	??___flmul,w
  3685  031A  00BE               	movwf	___flmul@prod
  3686  031B                     l1801:
  3687  031B  3001               	movlw	1
  3688  031C  07C2               	addwf	___flmul@temp,f
  3689  031D  1803               	skipnc
  3690  031E  0AC3               	incf	___flmul@temp+1,f
  3691  031F  3000               	movlw	0
  3692  0320  07C3               	addwf	___flmul@temp+1,f
  3693  0321                     l1803:
  3694  0321  0843               	movf	___flmul@temp+1,w
  3695  0322  3A80               	xorlw	128
  3696  0323  00FF               	movwf	btemp+1
  3697  0324  3080               	movlw	128
  3698  0325  027F               	subwf	btemp+1,w
  3699  0326  1D03               	skipz
  3700  0327  2B2A               	goto	u2375
  3701  0328  30FF               	movlw	255
  3702  0329  0242               	subwf	___flmul@temp,w
  3703  032A                     u2375:
  3704  032A  1C03               	skipc
  3705  032B  2B2D               	goto	u2371
  3706  032C  2B2E               	goto	u2370
  3707  032D                     u2371:
  3708  032D  2B39               	goto	l1807
  3709  032E                     u2370:
  3710  032E                     l1805:
  3711  032E  307F               	movlw	127
  3712  032F  1283               	bcf	3,5	;RP0=0, select bank0
  3713  0330  1303               	bcf	3,6	;RP1=0, select bank0
  3714  0331  00C1               	movwf	___flmul@prod+3
  3715  0332  3080               	movlw	128
  3716  0333  00C0               	movwf	___flmul@prod+2
  3717  0334  3000               	movlw	0
  3718  0335  00BF               	movwf	___flmul@prod+1
  3719  0336  3000               	movlw	0
  3720  0337  00BE               	movwf	___flmul@prod
  3721  0338  2B6E               	goto	l650
  3722  0339                     l1807:
  3723  0339  1283               	bcf	3,5	;RP0=0, select bank0
  3724  033A  1303               	bcf	3,6	;RP1=0, select bank0
  3725  033B  0843               	movf	___flmul@temp+1,w
  3726  033C  3A80               	xorlw	128
  3727  033D  00FF               	movwf	btemp+1
  3728  033E  3080               	movlw	128
  3729  033F  027F               	subwf	btemp+1,w
  3730  0340  1D03               	skipz
  3731  0341  2B44               	goto	u2385
  3732  0342  3001               	movlw	1
  3733  0343  0242               	subwf	___flmul@temp,w
  3734  0344                     u2385:
  3735  0344  1803               	skipnc
  3736  0345  2B47               	goto	u2381
  3737  0346  2B48               	goto	u2380
  3738  0347                     u2381:
  3739  0347  2B54               	goto	l1813
  3740  0348                     u2380:
  3741  0348                     l1809:
  3742  0348  3000               	movlw	0
  3743  0349  1283               	bcf	3,5	;RP0=0, select bank0
  3744  034A  1303               	bcf	3,6	;RP1=0, select bank0
  3745  034B  00C1               	movwf	___flmul@prod+3
  3746  034C  3000               	movlw	0
  3747  034D  00C0               	movwf	___flmul@prod+2
  3748  034E  3000               	movlw	0
  3749  034F  00BF               	movwf	___flmul@prod+1
  3750  0350  3000               	movlw	0
  3751  0351  00BE               	movwf	___flmul@prod
  3752  0352                     l1811:
  3753  0352  01B7               	clrf	___flmul@sign
  3754  0353  2B6E               	goto	l650
  3755  0354                     l1813:
  3756  0354  1283               	bcf	3,5	;RP0=0, select bank0
  3757  0355  1303               	bcf	3,6	;RP1=0, select bank0
  3758  0356  0842               	movf	___flmul@temp,w
  3759  0357  00B2               	movwf	??___flmul
  3760  0358  0832               	movf	??___flmul,w
  3761  0359  00BD               	movwf	___flmul@bexp
  3762  035A  30FF               	movlw	255
  3763  035B  05BE               	andwf	___flmul@prod,f
  3764  035C  30FF               	movlw	255
  3765  035D  05BF               	andwf	___flmul@prod+1,f
  3766  035E  307F               	movlw	127
  3767  035F  05C0               	andwf	___flmul@prod+2,f
  3768  0360  3000               	movlw	0
  3769  0361  05C1               	andwf	___flmul@prod+3,f
  3770  0362                     l1815:
  3771  0362  1C3D               	btfss	___flmul@bexp,0
  3772  0363  2B65               	goto	u2391
  3773  0364  2B66               	goto	u2390
  3774  0365                     u2391:
  3775  0365  2B67               	goto	l1819
  3776  0366                     u2390:
  3777  0366                     l1817:
  3778  0366  17C0               	bsf	___flmul@prod+2,7
  3779  0367                     l1819:
  3780  0367  083D               	movf	___flmul@bexp,w
  3781  0368  00B2               	movwf	??___flmul
  3782  0369  1003               	clrc
  3783  036A  0C32               	rrf	??___flmul,w
  3784  036B  00B3               	movwf	??___flmul+1
  3785  036C  0833               	movf	??___flmul+1,w
  3786  036D  00C1               	movwf	___flmul@prod+3
  3787  036E                     l650:
  3788  036E  0837               	movf	___flmul@sign,w
  3789  036F  00B2               	movwf	??___flmul
  3790  0370  0832               	movf	??___flmul,w
  3791  0371  04C1               	iorwf	___flmul@prod+3,f
  3792  0372                     l1821:
  3793  0372  0841               	movf	___flmul@prod+3,w
  3794  0373  00AD               	movwf	?___flmul+3
  3795  0374  0840               	movf	___flmul@prod+2,w
  3796  0375  00AC               	movwf	?___flmul+2
  3797  0376  083F               	movf	___flmul@prod+1,w
  3798  0377  00AB               	movwf	?___flmul+1
  3799  0378  083E               	movf	___flmul@prod,w
  3800  0379  00AA               	movwf	?___flmul
  3801  037A                     l638:
  3802  037A  0008               	return
  3803  037B                     __end_of___flmul:
  3804                           
  3805                           	psect	text11
  3806  0F08                     __ptext11:	
  3807 ;; *************** function __Umul8_16 *****************
  3808 ;; Defined at:
  3809 ;;		line 4 in file "C:\Program Files\Microchip\xc8\v2.32\pic\sources\c90\common\Umul8_16.c"
  3810 ;; Parameters:    Size  Location     Type
  3811 ;;  multiplier      1    wreg     unsigned char 
  3812 ;;  multiplicand    1    3[COMMON] unsigned char 
  3813 ;; Auto vars:     Size  Location     Type
  3814 ;;  multiplier      1    4[BANK0 ] unsigned char 
  3815 ;;  word_mpld       2    2[BANK0 ] unsigned int 
  3816 ;;  product         2    0[BANK0 ] unsigned int 
  3817 ;; Return value:  Size  Location     Type
  3818 ;;                  2    3[COMMON] unsigned int 
  3819 ;; Registers used:
  3820 ;;		wreg, status,2, status,0
  3821 ;; Tracked objects:
  3822 ;;		On entry : 0/0
  3823 ;;		On exit  : 0/0
  3824 ;;		Unchanged: 0/0
  3825 ;; Data sizes:     COMMON   BANK0   BANK1   BANK3   BANK2
  3826 ;;      Params:         2       0       0       0       0
  3827 ;;      Locals:         0       5       0       0       0
  3828 ;;      Temps:          2       0       0       0       0
  3829 ;;      Totals:         4       5       0       0       0
  3830 ;;Total ram usage:        9 bytes
  3831 ;; Hardware stack levels used: 1
  3832 ;; Hardware stack levels required when called: 1
  3833 ;; This function calls:
  3834 ;;		Nothing
  3835 ;; This function is called by:
  3836 ;;		___flmul
  3837 ;; This function uses a non-reentrant model
  3838 ;;
  3839                           
  3840                           
  3841                           ;psect for function __Umul8_16
  3842  0F08                     __Umul8_16:
  3843                           
  3844                           ;incstack = 0
  3845                           ; Regs used in __Umul8_16: [wreg+status,2+status,0]
  3846                           ;__Umul8_16@multiplier stored from wreg
  3847  0F08  1283               	bcf	3,5	;RP0=0, select bank0
  3848  0F09  1303               	bcf	3,6	;RP1=0, select bank0
  3849  0F0A  00A4               	movwf	__Umul8_16@multiplier
  3850  0F0B                     l1571:
  3851  0F0B  01A0               	clrf	__Umul8_16@product
  3852  0F0C  01A1               	clrf	__Umul8_16@product+1
  3853  0F0D                     l1573:
  3854  0F0D  0873               	movf	__Umul8_16@multiplicand,w
  3855  0F0E  00F5               	movwf	??__Umul8_16
  3856  0F0F  01F6               	clrf	??__Umul8_16+1
  3857  0F10  0875               	movf	??__Umul8_16,w
  3858  0F11  00A2               	movwf	__Umul8_16@word_mpld
  3859  0F12  0876               	movf	??__Umul8_16+1,w
  3860  0F13  00A3               	movwf	__Umul8_16@word_mpld+1
  3861  0F14                     l1575:
  3862  0F14  1C24               	btfss	__Umul8_16@multiplier,0
  3863  0F15  2F17               	goto	u1811
  3864  0F16  2F18               	goto	u1810
  3865  0F17                     u1811:
  3866  0F17  2F1E               	goto	l657
  3867  0F18                     u1810:
  3868  0F18                     l1577:
  3869  0F18  0822               	movf	__Umul8_16@word_mpld,w
  3870  0F19  07A0               	addwf	__Umul8_16@product,f
  3871  0F1A  1803               	skipnc
  3872  0F1B  0AA1               	incf	__Umul8_16@product+1,f
  3873  0F1C  0823               	movf	__Umul8_16@word_mpld+1,w
  3874  0F1D  07A1               	addwf	__Umul8_16@product+1,f
  3875  0F1E                     l657:
  3876  0F1E  3001               	movlw	1
  3877  0F1F                     u1825:
  3878  0F1F  1003               	clrc
  3879  0F20  0DA2               	rlf	__Umul8_16@word_mpld,f
  3880  0F21  0DA3               	rlf	__Umul8_16@word_mpld+1,f
  3881  0F22  3EFF               	addlw	-1
  3882  0F23  1D03               	skipz
  3883  0F24  2F1F               	goto	u1825
  3884  0F25  1003               	clrc
  3885  0F26  0CA4               	rrf	__Umul8_16@multiplier,f
  3886  0F27                     l1579:
  3887  0F27  0824               	movf	__Umul8_16@multiplier,w
  3888  0F28  1D03               	btfss	3,2
  3889  0F29  2F2B               	goto	u1831
  3890  0F2A  2F2C               	goto	u1830
  3891  0F2B                     u1831:
  3892  0F2B  2F14               	goto	l1575
  3893  0F2C                     u1830:
  3894  0F2C                     l1581:
  3895  0F2C  0821               	movf	__Umul8_16@product+1,w
  3896  0F2D  00F4               	movwf	?__Umul8_16+1
  3897  0F2E  0820               	movf	__Umul8_16@product,w
  3898  0F2F  00F3               	movwf	?__Umul8_16
  3899  0F30                     l659:
  3900  0F30  0008               	return
  3901  0F31                     __end_of__Umul8_16:
  3902                           
  3903                           	psect	text12
  3904  0FA1                     __ptext12:	
  3905 ;; *************** function _isr *****************
  3906 ;; Defined at:
  3907 ;;		line 90 in file "P1 Slave3 HC-SR04.c"
  3908 ;; Parameters:    Size  Location     Type
  3909 ;;		None
  3910 ;; Auto vars:     Size  Location     Type
  3911 ;;		None
  3912 ;; Return value:  Size  Location     Type
  3913 ;;                  1    wreg      void 
  3914 ;; Registers used:
  3915 ;;		wreg
  3916 ;; Tracked objects:
  3917 ;;		On entry : 0/0
  3918 ;;		On exit  : 0/0
  3919 ;;		Unchanged: 0/0
  3920 ;; Data sizes:     COMMON   BANK0   BANK1   BANK3   BANK2
  3921 ;;      Params:         0       0       0       0       0
  3922 ;;      Locals:         0       0       0       0       0
  3923 ;;      Temps:          3       0       0       0       0
  3924 ;;      Totals:         3       0       0       0       0
  3925 ;;Total ram usage:        3 bytes
  3926 ;; Hardware stack levels used: 1
  3927 ;; This function calls:
  3928 ;;		Nothing
  3929 ;; This function is called by:
  3930 ;;		Interrupt level 1
  3931 ;; This function uses a non-reentrant model
  3932 ;;
  3933                           
  3934                           
  3935                           ;psect for function _isr
  3936  0FA1                     _isr:
  3937  0FA1                     i1l1329:
  3938                           
  3939                           ;P1 Slave3 HC-SR04.c: 91:     if(PIR1bits.SSPIF == 1){
  3940  0FA1  1283               	bcf	3,5	;RP0=0, select bank0
  3941  0FA2  1303               	bcf	3,6	;RP1=0, select bank0
  3942  0FA3  1D8C               	btfss	12,3	;volatile
  3943  0FA4  2FA6               	goto	u126_21
  3944  0FA5  2FA7               	goto	u126_20
  3945  0FA6                     u126_21:
  3946  0FA6  2FF9               	goto	i1l148
  3947  0FA7                     u126_20:
  3948  0FA7                     i1l1331:
  3949                           
  3950                           ;P1 Slave3 HC-SR04.c: 92:         SSPCONbits.CKP = 0;
  3951  0FA7  1214               	bcf	20,4	;volatile
  3952                           
  3953                           ;P1 Slave3 HC-SR04.c: 94:         if ((SSPCONbits.SSPOV) || (SSPCONbits.WCOL)){
  3954  0FA8  1B14               	btfsc	20,6	;volatile
  3955  0FA9  2FAB               	goto	u127_21
  3956  0FAA  2FAC               	goto	u127_20
  3957  0FAB                     u127_21:
  3958  0FAB  2FB0               	goto	i1l1335
  3959  0FAC                     u127_20:
  3960  0FAC                     i1l1333:
  3961  0FAC  1F94               	btfss	20,7	;volatile
  3962  0FAD  2FAF               	goto	u128_21
  3963  0FAE  2FB0               	goto	u128_20
  3964  0FAF                     u128_21:
  3965  0FAF  2FB7               	goto	i1l1343
  3966  0FB0                     u128_20:
  3967  0FB0                     i1l1335:
  3968                           
  3969                           ;P1 Slave3 HC-SR04.c: 95:             z = SSPBUF;
  3970  0FB0  0813               	movf	19,w	;volatile
  3971  0FB1  00F0               	movwf	??_isr
  3972  0FB2  0870               	movf	??_isr,w
  3973  0FB3  00F8               	movwf	_z
  3974  0FB4                     i1l1337:
  3975                           
  3976                           ;P1 Slave3 HC-SR04.c: 96:             SSPCONbits.SSPOV = 0;
  3977  0FB4  1314               	bcf	20,6	;volatile
  3978  0FB5                     i1l1339:
  3979                           
  3980                           ;P1 Slave3 HC-SR04.c: 97:             SSPCONbits.WCOL = 0;
  3981  0FB5  1394               	bcf	20,7	;volatile
  3982  0FB6                     i1l1341:
  3983                           
  3984                           ;P1 Slave3 HC-SR04.c: 98:             SSPCONbits.CKP = 1;
  3985  0FB6  1614               	bsf	20,4	;volatile
  3986  0FB7                     i1l1343:
  3987                           
  3988                           ;P1 Slave3 HC-SR04.c: 101:         if(!SSPSTATbits.D_nA && !SSPSTATbits.R_nW) {
  3989  0FB7  1683               	bsf	3,5	;RP0=1, select bank1
  3990  0FB8  1303               	bcf	3,6	;RP1=0, select bank1
  3991  0FB9  1A94               	btfsc	20,5	;volatile
  3992  0FBA  2FBC               	goto	u129_21
  3993  0FBB  2FBD               	goto	u129_20
  3994  0FBC                     u129_21:
  3995  0FBC  2FD5               	goto	i1l139
  3996  0FBD                     u129_20:
  3997  0FBD                     i1l1345:
  3998  0FBD  1914               	btfsc	20,2	;volatile
  3999  0FBE  2FC0               	goto	u130_21
  4000  0FBF  2FC1               	goto	u130_20
  4001  0FC0                     u130_21:
  4002  0FC0  2FD5               	goto	i1l139
  4003  0FC1                     u130_20:
  4004  0FC1                     i1l1347:
  4005                           
  4006                           ;P1 Slave3 HC-SR04.c: 102:             z = SSPBUF;
  4007  0FC1  1283               	bcf	3,5	;RP0=0, select bank0
  4008  0FC2  1303               	bcf	3,6	;RP1=0, select bank0
  4009  0FC3  0813               	movf	19,w	;volatile
  4010  0FC4  00F0               	movwf	??_isr
  4011  0FC5  0870               	movf	??_isr,w
  4012  0FC6  00F8               	movwf	_z
  4013  0FC7                     i1l1349:
  4014                           
  4015                           ;P1 Slave3 HC-SR04.c: 103:             PIR1bits.SSPIF = 0;
  4016  0FC7  118C               	bcf	12,3	;volatile
  4017  0FC8                     i1l1351:
  4018                           
  4019                           ;P1 Slave3 HC-SR04.c: 104:             SSPCONbits.CKP = 1;
  4020  0FC8  1614               	bsf	20,4	;volatile
  4021  0FC9                     i1l140:	
  4022                           ;P1 Slave3 HC-SR04.c: 105:             while(!SSPSTATbits.BF);
  4023                           
  4024  0FC9  1683               	bsf	3,5	;RP0=1, select bank1
  4025  0FCA  1303               	bcf	3,6	;RP1=0, select bank1
  4026  0FCB  1C14               	btfss	20,0	;volatile
  4027  0FCC  2FCE               	goto	u131_21
  4028  0FCD  2FCF               	goto	u131_20
  4029  0FCE                     u131_21:
  4030  0FCE  2FC9               	goto	i1l140
  4031  0FCF                     u131_20:
  4032  0FCF                     i1l1353:
  4033                           
  4034                           ;P1 Slave3 HC-SR04.c: 106:             _delay((unsigned long)((250)*(8000000/4000000.0))
      +                          );
  4035  0FCF  30A6               	movlw	166
  4036  0FD0  00F0               	movwf	??_isr
  4037  0FD1                     u328_27:
  4038  0FD1  0BF0               	decfsz	??_isr,f
  4039  0FD2  2FD1               	goto	u328_27
  4040  0FD3  0000               	nop
  4041                           
  4042                           ;P1 Slave3 HC-SR04.c: 107:         }
  4043  0FD4  2FF6               	goto	i1l143
  4044  0FD5                     i1l139:	
  4045                           ;P1 Slave3 HC-SR04.c: 109:         else if(!SSPSTATbits.D_nA && SSPSTATbits.R_nW){
  4046                           
  4047  0FD5  1A94               	btfsc	20,5	;volatile
  4048  0FD6  2FD8               	goto	u132_21
  4049  0FD7  2FD9               	goto	u132_20
  4050  0FD8                     u132_21:
  4051  0FD8  2FF6               	goto	i1l143
  4052  0FD9                     u132_20:
  4053  0FD9                     i1l1355:
  4054  0FD9  1D14               	btfss	20,2	;volatile
  4055  0FDA  2FDC               	goto	u133_21
  4056  0FDB  2FDD               	goto	u133_20
  4057  0FDC                     u133_21:
  4058  0FDC  2FF6               	goto	i1l143
  4059  0FDD                     u133_20:
  4060  0FDD                     i1l1357:
  4061                           
  4062                           ;P1 Slave3 HC-SR04.c: 110:             z = SSPBUF;
  4063  0FDD  1283               	bcf	3,5	;RP0=0, select bank0
  4064  0FDE  1303               	bcf	3,6	;RP1=0, select bank0
  4065  0FDF  0813               	movf	19,w	;volatile
  4066  0FE0  00F0               	movwf	??_isr
  4067  0FE1  0870               	movf	??_isr,w
  4068  0FE2  00F8               	movwf	_z
  4069  0FE3                     i1l1359:
  4070                           
  4071                           ;P1 Slave3 HC-SR04.c: 111:             BF = 0;
  4072  0FE3  1683               	bsf	3,5	;RP0=1, select bank1
  4073  0FE4  1303               	bcf	3,6	;RP1=0, select bank1
  4074  0FE5  1014               	bcf	20,0	;volatile
  4075                           
  4076                           ;P1 Slave3 HC-SR04.c: 112:             SSPBUF = tnk;
  4077  0FE6  0879               	movf	_tnk,w
  4078  0FE7  1283               	bcf	3,5	;RP0=0, select bank0
  4079  0FE8  1303               	bcf	3,6	;RP1=0, select bank0
  4080  0FE9  0093               	movwf	19	;volatile
  4081  0FEA                     i1l1361:
  4082                           
  4083                           ;P1 Slave3 HC-SR04.c: 113:             SSPCONbits.CKP = 1;
  4084  0FEA  1614               	bsf	20,4	;volatile
  4085                           
  4086                           ;P1 Slave3 HC-SR04.c: 114:             _delay((unsigned long)((250)*(8000000/4000000.0))
      +                          );
  4087  0FEB  30A6               	movlw	166
  4088  0FEC  00F0               	movwf	??_isr
  4089  0FED                     u329_27:
  4090  0FED  0BF0               	decfsz	??_isr,f
  4091  0FEE  2FED               	goto	u329_27
  4092  0FEF  0000               	nop
  4093  0FF0                     i1l145:	
  4094                           ;P1 Slave3 HC-SR04.c: 115:             while(SSPSTATbits.BF);
  4095                           
  4096  0FF0  1683               	bsf	3,5	;RP0=1, select bank1
  4097  0FF1  1303               	bcf	3,6	;RP1=0, select bank1
  4098  0FF2  1814               	btfsc	20,0	;volatile
  4099  0FF3  2FF5               	goto	u134_21
  4100  0FF4  2FF6               	goto	u134_20
  4101  0FF5                     u134_21:
  4102  0FF5  2FF0               	goto	i1l145
  4103  0FF6                     u134_20:
  4104  0FF6                     i1l143:
  4105                           
  4106                           ;P1 Slave3 HC-SR04.c: 117:         PIR1bits.SSPIF = 0;
  4107  0FF6  1283               	bcf	3,5	;RP0=0, select bank0
  4108  0FF7  1303               	bcf	3,6	;RP1=0, select bank0
  4109  0FF8  118C               	bcf	12,3	;volatile
  4110  0FF9                     i1l148:
  4111  0FF9  0872               	movf	??_isr+2,w
  4112  0FFA  008A               	movwf	10
  4113  0FFB  0E71               	swapf	??_isr+1,w
  4114  0FFC  0083               	movwf	3
  4115  0FFD  0EFE               	swapf	btemp,f
  4116  0FFE  0E7E               	swapf	btemp,w
  4117  0FFF  0009               	retfie
  4118  1000                     __end_of_isr:
  4119  007E                     btemp	set	126	;btemp
  4120  007E                     wtemp0	set	126
  4121                           
  4122                           	psect	intentry
  4123  0004                     __pintentry:	
  4124                           ;incstack = 0
  4125                           ; Regs used in _isr: [wreg]
  4126                           
  4127  0004                     interrupt_function:
  4128  007E                     saved_w	set	btemp
  4129  0004  00FE               	movwf	btemp
  4130  0005  0E03               	swapf	3,w
  4131  0006  00F1               	movwf	??_isr+1
  4132  0007  080A               	movf	10,w
  4133  0008  00F2               	movwf	??_isr+2
  4134  0009  120A  158A  2FA1   	ljmp	_isr
  4135                           
  4136                           	psect	config
  4137                           
  4138                           ;Config register CONFIG1 @ 0x2007
  4139                           ;	Oscillator Selection bits
  4140                           ;	FOSC = INTRC_NOCLKOUT, INTOSCIO oscillator: I/O function on RA6/OSC2/CLKOUT pin, I/O f
      +                          unction on RA7/OSC1/CLKIN
  4141                           ;	Watchdog Timer Enable bit
  4142                           ;	WDTE = OFF, WDT disabled and can be enabled by SWDTEN bit of the WDTCON register
  4143                           ;	Power-up Timer Enable bit
  4144                           ;	PWRTE = ON, PWRT enabled
  4145                           ;	RE3/MCLR pin function select bit
  4146                           ;	MCLRE = OFF, RE3/MCLR pin function is digital input, MCLR internally tied to VDD
  4147                           ;	Code Protection bit
  4148                           ;	CP = OFF, Program memory code protection is disabled
  4149                           ;	Data Code Protection bit
  4150                           ;	CPD = OFF, Data memory code protection is disabled
  4151                           ;	Brown Out Reset Selection bits
  4152                           ;	BOREN = OFF, BOR disabled
  4153                           ;	Internal External Switchover bit
  4154                           ;	IESO = OFF, Internal/External Switchover mode is disabled
  4155                           ;	Fail-Safe Clock Monitor Enabled bit
  4156                           ;	FCMEN = OFF, Fail-Safe Clock Monitor is disabled
  4157                           ;	Low Voltage Programming Enable bit
  4158                           ;	LVP = OFF, RB3 pin has digital I/O, HV on MCLR must be used for programming
  4159                           ;	In-Circuit Debugger Mode bit
  4160                           ;	DEBUG = 0x1, unprogrammed default
  4161  2007                     	org	8199
  4162  2007  20C4               	dw	8388
  4163                           
  4164                           ;Config register CONFIG2 @ 0x2008
  4165                           ;	Brown-out Reset Selection bit
  4166                           ;	BOR4V = BOR40V, Brown-out Reset set to 4.0V
  4167                           ;	Flash Program Memory Self Write Enable bits
  4168                           ;	WRT = OFF, Write protection off
  4169  2008                     	org	8200
  4170  2008  3FFF               	dw	16383

Data Sizes:
    Strings     0
    Constant    0
    Data        0
    BSS         5
    Persistent  0
    Stack       0

Auto Spaces:
    Space          Size  Autos    Used
    COMMON           14      8      11
    BANK0            80     58      60
    BANK1            80      0       0
    BANK3            96      0       0
    BANK2            96      0       0

Pointer List with Targets:

    None.

Critical Paths under _main in COMMON

    _main->___lwdiv
    _setup->_I2C_Slave_Init
    ___fltol->___xxtofl
    ___flsub->___fladd
    ___flsub->___xxtofl
    ___flmul->__Umul8_16
    ___flmul->___xxtofl

Critical Paths under _isr in COMMON

    None.

Critical Paths under _main in BANK0

    _main->___fltol
    ___fltol->___flsub
    ___flsub->___flmul
    ___flmul->___xxtofl

Critical Paths under _isr in BANK0

    None.

Critical Paths under _main in BANK1

    None.

Critical Paths under _isr in BANK1

    None.

Critical Paths under _main in BANK3

    None.

Critical Paths under _isr in BANK3

    None.

Critical Paths under _main in BANK2

    None.

Critical Paths under _isr in BANK2

    None.

Call Graph Tables:

 ---------------------------------------------------------------------------------
 (Depth) Function   	        Calls       Base Space   Used Autos Params    Refs
 ---------------------------------------------------------------------------------
 (0) _main                                                 3     3      0    7098
                                             55 BANK0      3     3      0
                            ___flmul
                            ___flsub
                            ___fltol
                            ___lwdiv
                           ___xxtofl
                            _pulseIn
                           _pulseOut
                              _setup
 ---------------------------------------------------------------------------------
 (1) _setup                                                0     0      0      22
                     _I2C_Slave_Init
 ---------------------------------------------------------------------------------
 (2) _I2C_Slave_Init                                       1     1      0      22
                                              3 COMMON     1     1      0
 ---------------------------------------------------------------------------------
 (1) _pulseOut                                             1     1      0       0
                                              3 COMMON     1     1      0
 ---------------------------------------------------------------------------------
 (1) _pulseIn                                              0     0      0       0
 ---------------------------------------------------------------------------------
 (1) ___xxtofl                                            14    10      4     566
                                              3 COMMON     4     0      4
                                              0 BANK0     10    10      0
 ---------------------------------------------------------------------------------
 (1) ___lwdiv                                              8     4      4     421
                                              3 COMMON     5     1      4
                                              0 BANK0      3     3      0
 ---------------------------------------------------------------------------------
 (1) ___fltol                                             11     7      4     305
                                             44 BANK0     11     7      4
                            ___flmul (ARG)
                            ___flsub (ARG)
                           ___xxtofl (ARG)
 ---------------------------------------------------------------------------------
 (1) ___flsub                                              8     0      8    3367
                                             36 BANK0      8     0      8
                            ___fladd
                            ___flmul (ARG)
                           ___xxtofl (ARG)
 ---------------------------------------------------------------------------------
 (2) ___fladd                                             20    12      8    3122
                                              3 COMMON     4     4      0
                                              0 BANK0     16     8      8
 ---------------------------------------------------------------------------------
 (1) ___flmul                                             26    18      8    2417
                                             10 BANK0     26    18      8
                          __Umul8_16
                           ___xxtofl (ARG)
 ---------------------------------------------------------------------------------
 (2) __Umul8_16                                            9     7      2     799
                                              3 COMMON     4     2      2
                                              0 BANK0      5     5      0
 ---------------------------------------------------------------------------------
 Estimated maximum stack depth 2
 ---------------------------------------------------------------------------------
 (Depth) Function   	        Calls       Base Space   Used Autos Params    Refs
 ---------------------------------------------------------------------------------
 (3) _isr                                                  3     3      0       0
                                              0 COMMON     3     3      0
 ---------------------------------------------------------------------------------
 Estimated maximum stack depth 3
 ---------------------------------------------------------------------------------

 Call Graph Graphs:

 _main (ROOT)
   ___flmul
     __Umul8_16
     ___xxtofl (ARG)
   ___flsub
     ___fladd
     ___flmul (ARG)
     ___xxtofl (ARG)
   ___fltol
     ___flmul (ARG)
     ___flsub (ARG)
     ___xxtofl (ARG)
   ___lwdiv
   ___xxtofl
   _pulseIn
   _pulseOut
   _setup
     _I2C_Slave_Init

 _isr (ROOT)

 Address spaces:
Name               Size   Autos  Total    Cost      Usage
BITCOMMON            E      0       0       0        0.0%
EEDATA             100      0       0       0        0.0%
NULL                 0      0       0       0        0.0%
CODE                 0      0       0       0        0.0%
COMMON               E      8       B       1       78.6%
BITSFR0              0      0       0       1        0.0%
SFR0                 0      0       0       1        0.0%
BITSFR1              0      0       0       2        0.0%
SFR1                 0      0       0       2        0.0%
STACK                0      0       0       2        0.0%
ABS                  0      0      47       3        0.0%
BITBANK0            50      0       0       4        0.0%
BITSFR3              0      0       0       4        0.0%
SFR3                 0      0       0       4        0.0%
BANK0               50     3A      3C       5       75.0%
BITSFR2              0      0       0       5        0.0%
SFR2                 0      0       0       5        0.0%
BITBANK1            50      0       0       6        0.0%
BANK1               50      0       0       7        0.0%
BITBANK3            60      0       0       8        0.0%
BANK3               60      0       0       9        0.0%
BITBANK2            60      0       0      10        0.0%
BANK2               60      0       0      11        0.0%
DATA                 0      0      47      12        0.0%


Microchip Technology PIC Macro Assembler V2.32 build 20210201212658 
Symbol Table                                                                                   Mon Aug 30 16:31:17 2021

                      _z 0078              _SSPSTATbits 0094                       _BF 04A0  
                     l55 0EE3      __Umul8_16@word_mpld 0022                      l151 0F5A  
                    l160 0EB6                      l162 0EBA                      l154 0EC9  
                    l163 0EBB                      l157 0EAF                      l159 0EB5  
                    l521 0FA0                      l442 07E4                      l435 07F9  
                    l445 07F9                      l542 03DE                      l650 036E  
                    l546 0487                      l563 0558                      l555 060A  
                    l644 02E6                      l548 045C                      l573 059E  
                    l638 037A                      l567 057C                      l584 05FE  
                    l576 05DC                      l657 0F1E                      l585 060A  
                    l682 062F                      l659 0F30                      l588 0F07  
                    l684 06C6                      l695 0690                      l696 069C  
                    l688 0674                      _GIE 005F                      _RB0 0030  
                    _RB1 0031                      _isr 0FA1                      _tnk 0079  
           ___flmul@aexp 003C             ___flmul@bexp 003D             ___flmul@sign 0037  
           ___flmul@temp 0042             ___flmul@prod 003E             ___fltol@exp1 0056  
                   l2001 04B8                     l2011 04CC                     l2003 04BC  
                   l2021 0536                     l2013 04D5                     l2005 04C5  
                   l2101 0F88                     l2023 053B                     l2007 04C7  
                   l2015 04DA                     l2103 0F8E                     l2041 0583  
                   l2033 056E                     l2017 04F2                     l2025 054A  
                   l2009 04CB                     l2113 0EE4                     l2105 0F8F  
                   l2121 0613                     l2051 0591                     l2043 0585  
                   l2035 0577                     l2027 0560                     l2019 0530  
                   l2115 0EE8                     l2107 0F96                     l2131 0640  
                   l2123 0617                     l2061 05A8                     l2053 0595  
                   l2045 058A                     l2037 057B                     l2029 0565  
                   l2109 0F9C                     l2141 066B                     l2133 0645  
                   l2125 0627                     l2071 05E6                     l2063 05B6  
                   l2055 059B                     l2039 0580                     l2047 058C  
                   l2151 069E                     l2143 067B                     l2135 0652  
                   l2127 0637                     l2119 060E                     l2081 05FA  
                   l2073 05EE                     l2065 05BA                     l2049 0590  
                   l2153 06B4                     l2145 0686                     l2137 0659  
                   l1601 0F52                     l2083 0605                     l2075 05F3  
                   l2067 05D8                     l2059 05A3                     l2091 0F65  
                   l2155 06B9                     l2147 068A                     l2139 065D  
                   l1611 0EC4                     l1371 0EDC                     l1363 0ECB  
                   l1603 0F53                     l2171 06DA                     l2163 06C7  
                   l1701 0040                     l2085 0609                     l2077 05F4  
                   l2069 05E1                     l2093 0F68                     l2157 06BD  
                   l2149 0694                     l1613 0EC7                     l1373 0EDD  
                   l1365 0ED9                     l1605 0F54                     l2181 0703  
                   l2173 06E0                     l2165 06CC                     l1711 0058  
                   l1703 0048                     l2079 05F8                     l1631 07B4  
                   l1623 0794                     l2095 0F6F                     l2087 0F5B  
                   l2159 06BE                     l1615 0EAF                     l1607 0EBC  
                   l1375 0EE0                     l1367 0EDA                     l2183 0712  
                   l2175 06F3                     l2167 06D0                     l1801 031B  
                   l1721 0074                     l1713 005D                     l1705 004D  
                   l1633 07B8                     l1641 07D2                     l1625 07A9  
                   l1617 077E                     l2097 0F73                     l2089 0F5F  
                   l1609 0EBF                     l1369 0EDB                     l2177 06F9  
                   l2185 0723                     l2169 06D5                     l1571 0F0B  
                   l1811 0352                     l1803 0321                     l1731 0097  
                   l1723 0079                     l1715 0062                     l1707 0053  
                   l1651 07EE                     l1627 07AA                     l1619 078B  
                   l2099 0F77                     l2179 06FF                     l1581 0F2C  
                   l1573 0F0D                     l1821 0372                     l1813 0354  
                   l1805 032E                     l1741 0125                     l1733 00A4  
                   l1725 007E                     l1717 006A                     l1709 0057  
                   l1901 038D                     l1629 07B2                     l1575 0F14  
                   l1815 0362                     l1807 0339                     l1751 0187  
                   l1743 0141                     l1735 00C1                     l1719 006C  
                   l1903 0392                     l1911 03A2                     l1647 07D9  
                   l1639 07C0                     l1591 0F45                     l1577 0F18  
                   l1817 0366                     l1809 0348                     l1761 0217  
                   l1753 01A4                     l1745 014A                     l1737 00DD  
                   l1729 0087                     l1921 03BC                     l1913 03AA  
                   l1905 0397                     l1649 07E9                     l1593 0F49  
                   l1585 0F31                     l1579 0F27                     l1819 0367  
                   l1771 02A9                     l1763 0244                     l1755 01BD  
                   l1747 015A                     l1739 0109                     l1691 002B  
                   l1931 03D3                     l1923 03C0                     l1915 03AF  
                   l1907 039F                     l1595 0F4A                     l1587 0F38  
                   l1773 02B2                     l1781 02C6                     l1765 026A  
                   l1757 01DA                     l1749 0177                     l1693 002C  
                   l1685 001A                     l1941 03EC                     l1933 03D4  
                   l1925 03C1                     l1917 03B5                     l1909 03A0  
                   l1597 0F4D                     l1589 0F3A                     l1783 02CA  
                   l1775 02B6                     l1767 0292                     l1759 0207  
                   l1695 0031                     l1687 0021                     l1951 0400  
                   l1943 03F0                     l1927 03C6                     l1935 03D6  
                   l1919 03B6                     l1599 0F4E                     l1793 02EB  
                   l1785 02CB                     l1777 02B7                     l1769 029B  
                   l1697 0036                     l1689 0027                     l1961 0414  
                   l1953 0404                     l1945 03F4                     l1937 03E4  
                   l1929 03CB                     l1795 02F0                     l1787 02CF  
                   l1779 02C0                     l1699 003E                     l1963 0418  
                   l1955 0408                     l1947 03F8                     l1939 03E8  
                   l1971 0428                     l1797 02FE                     l1789 02E3  
                   l1981 046D                     l1973 0429                     l1965 041C  
                   l1957 040C                     l1949 03FC                     l1893 037B  
                   l1799 0302                     l1991 048B                     l1983 0473  
                   l1975 0440                     l1967 0420                     l1959 0410  
                   l1895 0382                     l1993 0490                     l1985 0474  
                   l1977 0460                     l1969 0424                     l1897 0388  
                   l1987 047D                     l1979 046B                     l1899 038C  
                   l1997 049B                     l1989 0481                     l1999 04B4  
                   ?_isr 0070                     u2100 007E                     u2101 007D  
                   u2030 002B                     u2111 00CF                     u2031 002A  
                   u2112 00D6                     u2040 0031                     u3000 05F8  
                   u2201 01F9                     u2121 00EB                     u2113 00DD  
                   u2041 0030                     u3001 05F7                     u2202 0200  
                   u2122 00F2                     u2050 0036                     u3010 0609  
                   u2211 0226                     u2203 0207                     u2131 0117  
                   u2123 00F9                     u2051 0035                     u3011 0608  
                   u2300 02CA                     u2220 0250                     u2212 022D  
                   u2132 011E                     u2060 0057                     u3020 0F65  
                   u3100 0617                     u2301 02C9                     u2213 0234  
                   u2141 0133                     u2133 0125                     u2061 0056  
                   u3021 0F64                     u3101 0616                     u2310 02CF  
                   u2142 013A                     u2070 005D                     u3110 0637  
                   u2311 02CE                     u2231 025C                     u2143 0141  
                   u2071 005C                     u3111 0636                     u2320 02E3  
                   u2240 0278                     u2232 0263                     u2080 0062  
                   u3040 0F77                     u3200 06A9                     u2321 02E2  
                   u2233 026A                     u2225 024B                     u2161 0169  
                   u2081 0061                     u3041 0F76                     u2330 02EA  
                   u2162 0170                     u2090 0079                     u3210 06B9  
                   u3130 0658                     u2331 02E9                     u2251 0284  
                   u2171 0196                     u2163 0177                     u2155 0143  
                   u2091 0078                     u3035 0F69                     u3211 06B8  
                   u3131 0657                     u2340 02F0                     u2252 028B  
                   u2172 019D                     u3060 0F88                     u3220 06BD  
                   u2341 02EF                     u2253 0292                     u2245 0273  
                   u2173 01A4                     u3061 0F87                     u3221 06BC  
                   u3205 06A4                     u3125 064A                     u2350 0302  
                   u3150 067A                     u3230 06F9                     u2351 0301  
                   u2191 01CC                     u3055 0F78                     u3151 0679  
                   u3231 06F8                     u2360 0311                     u2280 02B6  
                   u2192 01D3                     u2600 03C0                     u3080 0F9C  
                   u3240 06FF                     u2281 02B5                     u2265 0294  
                   u2193 01DA                     u2185 01A6                     u2601 03BF  
                   u3081 0F9B                     u3065 0F84                     u3145 066C  
                   u3241 06FE                     u1810 0F18                     u2370 032E  
                   u2610 03C6                     u3170 068A                     u3090 0613  
                   u1811 0F17                     u2371 032D                     u2275 02AB  
                   u2611 03C5                     u3075 0F90                     u3171 0689  
                   u3091 0612                     u2380 0348                     u2620 03CB  
                   u3180 0690                     u2381 0347                     u2365 030C  
                   u2621 03CA                     u3181 068F                     u3165 067F  
                   u1830 0F2C                     u2390 0366                     u2710 0487  
                   u2630 03E4                     u1910 07D1                     u3190 0694  
                   u1831 0F2B                     u2391 0365                     u2375 032A  
                   u2295 02B9                     u2711 0486                     u2631 03E3  
                   u1911 07D0                     u3191 0693                     u2720 048B  
                   u2640 03E8                     u2560 038C                     u1920 07D8  
                   u1840 0EB5                     u1825 0F1F                     u2385 0344  
                   u2801 0509                     u2721 048A                     u2705 0476  
                   u2641 03E7                     u2561 038B                     u1921 07D7  
                   u1905 07C1                     u1841 0EB4                     u3257 070C  
                   u2810 051D                     u2802 050A                     u2730 0490  
                   u2650 0440                     u2570 0392                     u1850 0EBA  
                   u2811 051E                     u2803 050F                     u2731 048F  
                   u2651 043F                     u2571 0391                     u1851 0EB9  
                   u3267 071D                     u2900 0595                     u2820 053B  
                   u2812 0523                     u2804 0510                     u2660 044B  
                   u2580 0397                     u1940 07E9                     u1860 078B  
                   u2901 0594                     u2821 053A                     u2813 0524  
                   u2805 0515                     u2741 04A6                     u2661 0449  
                   u2581 0396                     u1941 07E8                     u1861 078A  
                   u3277 0EC1                     u2910 059B                     u2830 0560  
                   u2806 0516                     u2750 04B8                     u2742 04AD  
                   u2670 044C                     u2590 03B5                     u1950 07EE  
                   u1870 07A2                     u2911 059A                     u2831 055F  
                   u2751 04B7                     u2743 04B4                     u2655 043C  
                   u2591 03B4                     u1951 07ED                     u1935 07DB  
                   u2920 05A2                     u2840 0565                     u2760 04BC  
                   u2680 0460                     u1880 07B8                     u2921 05A1  
                   u2841 0564                     u2761 04BB                     u2681 045F  
                   u1881 07B7                     u2930 05A8                     u2770 04CB  
                   u2690 0473                     u1890 07BF                     u2931 05A7  
                   u2771 04CA                     u2691 0472                     u1891 07BE  
                   u1875 079D                     _PEIE 005E                     u2940 05BA  
                   u2860 057B                     u2941 05B9                     u2861 057A  
                   u2950 05C9                     u2870 0580                     u2790 04F2  
                   u2871 057F                     u2855 0570                     u2791 04F1  
                   u2960 05D8                     u2880 058A                     u2961 05D7  
                   u2881 0589                     u2793 04EE                     u2785 04CE  
                   u2970 05E1                     u2890 0590                     u2971 05E0  
                   u2955 05C4                     u2891 058F                     u2980 05E6  
                   u2981 05E5                     u2990 05F3                     u2991 05F2  
                   _TMR1 000E                     _main 06C7                     btemp 007E  
                   start 000C                    ??_isr 0070            ___fltol@sign1 0055  
        __end_of___fladd 060B                    ?_main 0070          __end_of___flmul 037B  
        __end_of___flsub 0F08          __end_of___fltol 07FA                    _ANSEL 0188  
        __end_of___lwdiv 0FA1                    i1l140 0FC9                    i1l143 0FF6  
                  i1l145 0FF0                    i1l139 0FD5                    i1l148 0FF9  
                  _PORTA 0005                    _PORTB 0006                    _PORTC 0007  
                  _PORTD 0008                    _PORTE 0009                    _TRISA 0085  
                  _TRISB 0086                    _TRISC 0087                    _TRISD 0088  
                  _SSPIE 0463                    _TRISE 0089                    _SSPIF 0063  
                  _setup 0F31                    pclath 000A          __end_of_pulseIn 0EBC  
                  status 0003                    wtemp0 007E          __initialization 000F  
           __end_of_main 077E                   ??_main 0057                   ?_setup 0070  
                 _ANSELH 0189                   i1l1331 0FA7                   i1l1341 0FB6  
                 i1l1333 0FAC                   i1l1351 0FC8                   i1l1343 0FB7  
                 i1l1335 0FB0                   i1l1361 0FEA                   i1l1353 0FCF  
                 i1l1345 0FBD                   i1l1337 0FB4                   i1l1329 0FA1  
                 i1l1355 0FD9                   i1l1347 0FC1                   i1l1339 0FB5  
                 i1l1357 0FDD                   i1l1349 0FC7                   i1l1359 0FE3  
                 u130_20 0FC1                   u130_21 0FC0                   u131_20 0FCF  
                 u131_21 0FCE                   u132_20 0FD9                   u132_21 0FD8  
                 u133_20 0FDD                   u133_21 0FDC                   u134_20 0FF6  
                 u126_20 0FA7                   u134_21 0FF5                   u126_21 0FA6  
                 u127_20 0FAC                   u127_21 0FAB                   u128_20 0FB0  
                 u128_21 0FAF                   u129_20 0FBD                   u129_21 0FBC  
                 u328_27 0FD1                   u329_27 0FED                   _SSPADD 0093  
                 _TRISC3 043B                   _TRISC4 043C                   _SSPCON 0014  
                 _SSPBUF 0013         __end_of___xxtofl 06C7                ??___fladd 0028  
              ??___flmul 0032                ??___flsub 0077                ??___fltol 0050  
              ??___lwdiv 0077       __size_of__Umul8_16 0029                   saved_w 007E  
       __end_of_pulseOut 0ECA                ??_pulseIn 0073             ___xxtofl@arg 0026  
           ___xxtofl@exp 0025             ___xxtofl@val 0073  __end_of__initialization 0016  
             ___fltol@f1 004C           __pcstackCOMMON 0070  __size_of_I2C_Slave_Init 001A  
          __end_of_setup 0F5B                  ??_setup 0074    I2C_Slave_Init@address 0073  
             __pbssBANK0 005A        __end_of__Umul8_16 0F31               __pmaintext 06C7  
             __pintentry 0004                ?___xxtofl 0073                  _SSPCON2 0091  
                _SSPSTAT 0094                  ___fladd 037B                  ___flmul 001A  
                ___flsub 0EE4                  ___fltol 077E                ?_pulseOut 0070  
                ___lwdiv 0F5B                  __ptext1 0F31                  __ptext2 0ECA  
                __ptext3 0EBC                  __ptext4 0EAF                  __ptext5 060B  
                __ptext6 0F5B                  __ptext7 077E                  __ptext8 0EE4  
                __ptext9 037B                _T1CONbits 0010             __size_of_isr 005F  
             ??___xxtofl 0020                  _pulseIn 0EAF     end_of_initialization 0016  
         _I2C_Slave_Init 0ECA               ??_pulseOut 0073                _PORTBbits 0006  
            ___fladd@grs 0076            ___xxtofl@sign 0024                _TRISCbits 0087  
            ___flmul@grs 0038   __end_of_I2C_Slave_Init 0EE4      start_initialization 000F  
            __end_of_isr 1000          ?_I2C_Slave_Init 0070                __Umul8_16 0F08  
              ___fladd@a 0024                ___fladd@b 0020                ___flmul@a 002E  
              ___flmul@b 002A              __pbssCOMMON 0078                ___flsub@a 0044  
              ___flsub@b 0048                ___latbits 0002            __pcstackBANK0 0020  
      __size_of___xxtofl 00BC         ___lwdiv@dividend 0075                 ?___fladd 0020  
               ?___flmul 002A                 ?___flsub 0044                 ?___fltol 004C  
             ?__Umul8_16 0073                 ?___lwdiv 0073        __size_of_pulseOut 000E  
              _distancia 007A                 ?_pulseIn 0070         ___lwdiv@quotient 0021  
         __size_of_setup 002A        interrupt_function 0004                 _PIR1bits 000C  
            ??__Umul8_16 0075         __size_of___fladd 0290         __size_of___flmul 0361  
       __size_of___flsub 0024         __size_of___fltol 007C         __size_of___lwdiv 0046  
               ___xxtofl 060B          ___lwdiv@divisor 0073          ___lwdiv@counter 0020  
               __ptext10 001A                 __ptext11 0F08                 __ptext12 0FA1  
       __size_of_pulseIn 000D         ??_I2C_Slave_Init 0073                 _duracion 005A  
          __size_of_main 00B7                 _pulseOut 0EBC               _INTCONbits 000B  
               intlevel1 0000               _OSCCONbits 008F   __Umul8_16@multiplicand 0073  
            _SSPCON2bits 0091            ___fladd@signs 0073             ___fladd@aexp 0074  
           ___fladd@bexp 0075     __Umul8_16@multiplier 0024               _SSPCONbits 0014  
      __Umul8_16@product 0020  
