

Microchip MPLAB XC8 Assembler V2.32 build 20210201212658 
                                                                                               Tue Sep 07 19:53:46 2021

Microchip MPLAB XC8 C Compiler v2.32 (Free license) build 20210201212658 Og1 
     1                           	processor	16F887
     2                           	pagewidth 120
     3                           	opt	flic
     4                           	psect	idataBANK0,global,class=CODE,delta=2,noexec
     5                           	psect	strings,global,class=STRING,delta=2,noexec
     6                           	psect	cinit,global,class=CODE,merge=1,delta=2
     7                           	psect	bssCOMMON,global,class=COMMON,space=1,delta=1,noexec
     8                           	psect	bssBANK0,global,class=BANK0,space=1,delta=1,noexec
     9                           	psect	dataBANK0,global,class=BANK0,space=1,delta=1,noexec
    10                           	psect	cstackCOMMON,global,class=COMMON,space=1,delta=1,noexec
    11                           	psect	cstackBANK0,global,class=BANK0,space=1,delta=1,noexec
    12                           	psect	maintext,global,class=CODE,split=1,delta=2
    13                           	psect	text1,local,class=CODE,merge=1,delta=2
    14                           	psect	text2,local,class=CODE,merge=1,delta=2
    15                           	psect	text3,local,class=CODE,merge=1,delta=2,group=1
    16                           	psect	text4,local,class=CODE,merge=1,delta=2,group=1
    17                           	psect	text5,local,class=CODE,merge=1,delta=2,group=1
    18                           	psect	text6,local,class=CODE,merge=1,delta=2,group=1
    19                           	psect	text7,local,class=CODE,merge=1,delta=2
    20                           	psect	text8,local,class=CODE,merge=1,delta=2
    21                           	psect	text9,local,class=CODE,merge=1,delta=2
    22                           	psect	text10,local,class=CODE,merge=1,delta=2
    23                           	psect	text11,local,class=CODE,merge=1,delta=2
    24                           	psect	text12,local,class=CODE,merge=1,delta=2
    25                           	psect	text13,local,class=CODE,merge=1,delta=2
    26                           	psect	text14,local,class=CODE,merge=1,delta=2
    27                           	psect	text15,local,class=CODE,merge=1,delta=2
    28                           	psect	text16,local,class=CODE,merge=1,delta=2
    29                           	psect	text17,local,class=CODE,merge=1,delta=2
    30                           	psect	text18,local,class=CODE,merge=1,delta=2
    31                           	psect	text19,local,class=CODE,merge=1,delta=2
    32                           	psect	text20,local,class=CODE,merge=1,delta=2,group=1
    33                           	psect	text21,local,class=CODE,merge=1,delta=2,group=1
    34                           	psect	text22,local,class=CODE,merge=1,delta=2
    35                           	psect	intentry,global,class=CODE,delta=2
    36                           	psect	text23,local,class=CODE,merge=1,delta=2,group=2
    37                           	psect	text24,local,class=CODE,merge=1,delta=2,group=1
    38                           	psect	config,global,abs,ovrld,class=CONFIG,space=4,delta=2,noexec
    39                           	dabs	1,0x7E,2
    40  0000                     
    41                           ; Version 2.20
    42                           ; Generated 12/02/2020 GMT
    43                           ; 
    44                           ; Copyright © 2020, Microchip Technology Inc. and its subsidiaries ("Microchip")
    45                           ; All rights reserved.
    46                           ; 
    47                           ; This software is developed by Microchip Technology Inc. and its subsidiaries ("Microch
      +                          ip").
    48                           ; 
    49                           ; Redistribution and use in source and binary forms, with or without modification, are
    50                           ; permitted provided that the following conditions are met:
    51                           ; 
    52                           ;     1. Redistributions of source code must retain the above copyright notice, this lis
      +                          t of
    53                           ;        conditions and the following disclaimer.
    54                           ; 
    55                           ;     2. Redistributions in binary form must reproduce the above copyright notice, this 
      +                          list
    56                           ;        of conditions and the following disclaimer in the documentation and/or other
    57                           ;        materials provided with the distribution.
    58                           ; 
    59                           ;     3. Microchip's name may not be used to endorse or promote products derived from th
      +                          is
    60                           ;        software without specific prior written permission.
    61                           ; 
    62                           ; THIS SOFTWARE IS PROVIDED BY MICROCHIP "AS IS" AND ANY EXPRESS OR IMPLIED WARRANTIES,
    63                           ; INCLUDING, BUT NOT LIMITED TO, THE IMPLIED WARRANTIES OF MERCHANTABILITY AND FITNESS F
      +                          OR
    64                           ; PURPOSE ARE DISCLAIMED.  IN NO EVENT SHALL MICROCHIP BE LIABLE FOR ANY DIRECT, INDIREC
      +                          T,
    65                           ; INCIDENTAL, SPECIAL, EXEMPLARY, OR CONSEQUENTIAL DAMAGES (INCLUDING BUT NOT LIMITED TO
    66                           ; PROCUREMENT OF SUBSTITUTE GOODS OR SERVICES; LOSS OF USE, DATA OR PROFITS; OR BUSINESS
    67                           ; INTERRUPTION) HOWSOEVER CAUSED AND ON ANY THEORY OF LIABILITY, WHETHER IN CONTRACT, ST
      +                          RICT
    68                           ; LIABILITY, OR TORT (INCLUDING NEGLIGENCE OR OTHERWISE) ARISING IN ANY WAY OUT OF THE U
      +                          SE OF
    69                           ; THIS SOFTWARE, EVEN IF ADVISED OF THE POSSIBILITY OF SUCH DAMAGE.
    70                           ; 
    71                           ; 
    72                           ; Code-generator required, PIC16F887 Definitions
    73                           ; 
    74                           ; SFR Addresses
    75  0000                     	;# 
    76  0001                     	;# 
    77  0002                     	;# 
    78  0003                     	;# 
    79  0004                     	;# 
    80  0005                     	;# 
    81  0006                     	;# 
    82  0007                     	;# 
    83  0008                     	;# 
    84  0009                     	;# 
    85  000A                     	;# 
    86  000B                     	;# 
    87  000C                     	;# 
    88  000D                     	;# 
    89  000E                     	;# 
    90  000E                     	;# 
    91  000F                     	;# 
    92  0010                     	;# 
    93  0011                     	;# 
    94  0012                     	;# 
    95  0013                     	;# 
    96  0014                     	;# 
    97  0015                     	;# 
    98  0015                     	;# 
    99  0016                     	;# 
   100  0017                     	;# 
   101  0018                     	;# 
   102  0019                     	;# 
   103  001A                     	;# 
   104  001B                     	;# 
   105  001B                     	;# 
   106  001C                     	;# 
   107  001D                     	;# 
   108  001E                     	;# 
   109  001F                     	;# 
   110  0081                     	;# 
   111  0085                     	;# 
   112  0086                     	;# 
   113  0087                     	;# 
   114  0088                     	;# 
   115  0089                     	;# 
   116  008C                     	;# 
   117  008D                     	;# 
   118  008E                     	;# 
   119  008F                     	;# 
   120  0090                     	;# 
   121  0091                     	;# 
   122  0092                     	;# 
   123  0093                     	;# 
   124  0093                     	;# 
   125  0093                     	;# 
   126  0094                     	;# 
   127  0095                     	;# 
   128  0096                     	;# 
   129  0097                     	;# 
   130  0098                     	;# 
   131  0099                     	;# 
   132  009A                     	;# 
   133  009B                     	;# 
   134  009C                     	;# 
   135  009D                     	;# 
   136  009E                     	;# 
   137  009F                     	;# 
   138  0105                     	;# 
   139  0107                     	;# 
   140  0108                     	;# 
   141  0109                     	;# 
   142  010C                     	;# 
   143  010C                     	;# 
   144  010D                     	;# 
   145  010E                     	;# 
   146  010F                     	;# 
   147  0185                     	;# 
   148  0187                     	;# 
   149  0188                     	;# 
   150  0189                     	;# 
   151  018C                     	;# 
   152  018D                     	;# 
   153  0000                     	;# 
   154  0001                     	;# 
   155  0002                     	;# 
   156  0003                     	;# 
   157  0004                     	;# 
   158  0005                     	;# 
   159  0006                     	;# 
   160  0007                     	;# 
   161  0008                     	;# 
   162  0009                     	;# 
   163  000A                     	;# 
   164  000B                     	;# 
   165  000C                     	;# 
   166  000D                     	;# 
   167  000E                     	;# 
   168  000E                     	;# 
   169  000F                     	;# 
   170  0010                     	;# 
   171  0011                     	;# 
   172  0012                     	;# 
   173  0013                     	;# 
   174  0014                     	;# 
   175  0015                     	;# 
   176  0015                     	;# 
   177  0016                     	;# 
   178  0017                     	;# 
   179  0018                     	;# 
   180  0019                     	;# 
   181  001A                     	;# 
   182  001B                     	;# 
   183  001B                     	;# 
   184  001C                     	;# 
   185  001D                     	;# 
   186  001E                     	;# 
   187  001F                     	;# 
   188  0081                     	;# 
   189  0085                     	;# 
   190  0086                     	;# 
   191  0087                     	;# 
   192  0088                     	;# 
   193  0089                     	;# 
   194  008C                     	;# 
   195  008D                     	;# 
   196  008E                     	;# 
   197  008F                     	;# 
   198  0090                     	;# 
   199  0091                     	;# 
   200  0092                     	;# 
   201  0093                     	;# 
   202  0093                     	;# 
   203  0093                     	;# 
   204  0094                     	;# 
   205  0095                     	;# 
   206  0096                     	;# 
   207  0097                     	;# 
   208  0098                     	;# 
   209  0099                     	;# 
   210  009A                     	;# 
   211  009B                     	;# 
   212  009C                     	;# 
   213  009D                     	;# 
   214  009E                     	;# 
   215  009F                     	;# 
   216  0105                     	;# 
   217  0107                     	;# 
   218  0108                     	;# 
   219  0109                     	;# 
   220  010C                     	;# 
   221  010C                     	;# 
   222  010D                     	;# 
   223  010E                     	;# 
   224  010F                     	;# 
   225  0185                     	;# 
   226  0187                     	;# 
   227  0188                     	;# 
   228  0189                     	;# 
   229  018C                     	;# 
   230  018D                     	;# 
   231  0000                     	;# 
   232  0001                     	;# 
   233  0002                     	;# 
   234  0003                     	;# 
   235  0004                     	;# 
   236  0005                     	;# 
   237  0006                     	;# 
   238  0007                     	;# 
   239  0008                     	;# 
   240  0009                     	;# 
   241  000A                     	;# 
   242  000B                     	;# 
   243  000C                     	;# 
   244  000D                     	;# 
   245  000E                     	;# 
   246  000E                     	;# 
   247  000F                     	;# 
   248  0010                     	;# 
   249  0011                     	;# 
   250  0012                     	;# 
   251  0013                     	;# 
   252  0014                     	;# 
   253  0015                     	;# 
   254  0015                     	;# 
   255  0016                     	;# 
   256  0017                     	;# 
   257  0018                     	;# 
   258  0019                     	;# 
   259  001A                     	;# 
   260  001B                     	;# 
   261  001B                     	;# 
   262  001C                     	;# 
   263  001D                     	;# 
   264  001E                     	;# 
   265  001F                     	;# 
   266  0081                     	;# 
   267  0085                     	;# 
   268  0086                     	;# 
   269  0087                     	;# 
   270  0088                     	;# 
   271  0089                     	;# 
   272  008C                     	;# 
   273  008D                     	;# 
   274  008E                     	;# 
   275  008F                     	;# 
   276  0090                     	;# 
   277  0091                     	;# 
   278  0092                     	;# 
   279  0093                     	;# 
   280  0093                     	;# 
   281  0093                     	;# 
   282  0094                     	;# 
   283  0095                     	;# 
   284  0096                     	;# 
   285  0097                     	;# 
   286  0098                     	;# 
   287  0099                     	;# 
   288  009A                     	;# 
   289  009B                     	;# 
   290  009C                     	;# 
   291  009D                     	;# 
   292  009E                     	;# 
   293  009F                     	;# 
   294  0105                     	;# 
   295  0107                     	;# 
   296  0108                     	;# 
   297  0109                     	;# 
   298  010C                     	;# 
   299  010C                     	;# 
   300  010D                     	;# 
   301  010E                     	;# 
   302  010F                     	;# 
   303  0185                     	;# 
   304  0187                     	;# 
   305  0188                     	;# 
   306  0189                     	;# 
   307  018C                     	;# 
   308  018D                     	;# 
   309  0000                     	;# 
   310  0001                     	;# 
   311  0002                     	;# 
   312  0003                     	;# 
   313  0004                     	;# 
   314  0005                     	;# 
   315  0006                     	;# 
   316  0007                     	;# 
   317  0008                     	;# 
   318  0009                     	;# 
   319  000A                     	;# 
   320  000B                     	;# 
   321  000C                     	;# 
   322  000D                     	;# 
   323  000E                     	;# 
   324  000E                     	;# 
   325  000F                     	;# 
   326  0010                     	;# 
   327  0011                     	;# 
   328  0012                     	;# 
   329  0013                     	;# 
   330  0014                     	;# 
   331  0015                     	;# 
   332  0015                     	;# 
   333  0016                     	;# 
   334  0017                     	;# 
   335  0018                     	;# 
   336  0019                     	;# 
   337  001A                     	;# 
   338  001B                     	;# 
   339  001B                     	;# 
   340  001C                     	;# 
   341  001D                     	;# 
   342  001E                     	;# 
   343  001F                     	;# 
   344  0081                     	;# 
   345  0085                     	;# 
   346  0086                     	;# 
   347  0087                     	;# 
   348  0088                     	;# 
   349  0089                     	;# 
   350  008C                     	;# 
   351  008D                     	;# 
   352  008E                     	;# 
   353  008F                     	;# 
   354  0090                     	;# 
   355  0091                     	;# 
   356  0092                     	;# 
   357  0093                     	;# 
   358  0093                     	;# 
   359  0093                     	;# 
   360  0094                     	;# 
   361  0095                     	;# 
   362  0096                     	;# 
   363  0097                     	;# 
   364  0098                     	;# 
   365  0099                     	;# 
   366  009A                     	;# 
   367  009B                     	;# 
   368  009C                     	;# 
   369  009D                     	;# 
   370  009E                     	;# 
   371  009F                     	;# 
   372  0105                     	;# 
   373  0107                     	;# 
   374  0108                     	;# 
   375  0109                     	;# 
   376  010C                     	;# 
   377  010C                     	;# 
   378  010D                     	;# 
   379  010E                     	;# 
   380  010F                     	;# 
   381  0185                     	;# 
   382  0187                     	;# 
   383  0188                     	;# 
   384  0189                     	;# 
   385  018C                     	;# 
   386  018D                     	;# 
   387                           
   388                           	psect	idataBANK0
   389  07FF                     __pidataBANK0:
   390                           
   391                           ;initializer for _Tnk
   392  07FF  3405               	retlw	5
   393  0013                     _SSPBUF	set	19
   394  0014                     _SSPCON	set	20
   395  000C                     _PIR1bits	set	12
   396  000B                     _INTCONbits	set	11
   397  0018                     _RCSTAbits	set	24
   398  0009                     _PORTE	set	9
   399  0008                     _PORTD	set	8
   400  0007                     _PORTC	set	7
   401  0006                     _PORTB	set	6
   402  0005                     _PORTA	set	5
   403  0019                     _TXREG	set	25
   404  001A                     _RCREG	set	26
   405  0063                     _SSPIF	set	99
   406  005E                     _PEIE	set	94
   407  005F                     _GIE	set	95
   408  0043                     _RD3	set	67
   409  0042                     _RD2	set	66
   410  0047                     _RD7	set	71
   411  0046                     _RD6	set	70
   412  0045                     _RD5	set	69
   413  0044                     _RD4	set	68
   414  0064                     _TXIF	set	100
   415  0065                     _RCIF	set	101
   416  0091                     _SSPCON2bits	set	145
   417  0087                     _TRISCbits	set	135
   418  0094                     _SSPSTAT	set	148
   419  0093                     _SSPADD	set	147
   420  0091                     _SSPCON2	set	145
   421  008C                     _PIE1bits	set	140
   422  009A                     _SPBRGH	set	154
   423  0099                     _SPBRG	set	153
   424  0098                     _TXSTAbits	set	152
   425  008F                     _OSCCONbits	set	143
   426  0089                     _TRISE	set	137
   427  0088                     _TRISD	set	136
   428  0087                     _TRISC	set	135
   429  0086                     _TRISB	set	134
   430  0085                     _TRISA	set	133
   431  0463                     _SSPIE	set	1123
   432  043C                     _TRISC4	set	1084
   433  043B                     _TRISC3	set	1083
   434  0187                     _BAUDCTLbits	set	391
   435  0188                     _ANSEL	set	392
   436  0189                     _ANSELH	set	393
   437                           
   438                           	psect	strings
   439  0800                     __pstrings:
   440  0800                     stringtab:
   441  0800                     __stringtab:
   442  0800                     stringcode:	
   443                           ;	String table - string pointers are 1 byte each
   444                           
   445  0800                     stringdir:
   446  0800  3008               	movlw	high stringdir
   447  0801  008A               	movwf	10
   448  0802  0804               	movf	4,w
   449  0803  0A84               	incf	4,f
   450  0804  0782               	addwf	2,f
   451  0805                     __stringbase:
   452  0805  3400               	retlw	0
   453  0806                     __end_of__stringtab:
   454  0806                     STR_1:
   455  0806  3443               	retlw	67	;'C'
   456  0807  3443               	retlw	67	;'C'
   457  0808  343A               	retlw	58	;':'
   458  0809  3420               	retlw	32	;' '
   459  080A  3453               	retlw	83	;'S'
   460  080B  3470               	retlw	112	;'p'
   461  080C  343A               	retlw	58	;':'
   462  080D  3420               	retlw	32	;' '
   463  080E  344C               	retlw	76	;'L'
   464  080F  347A               	retlw	122	;'z'
   465  0810  343A               	retlw	58	;':'
   466  0811  3420               	retlw	32	;' '
   467  0812  3454               	retlw	84	;'T'
   468  0813  346E               	retlw	110	;'n'
   469  0814  346B               	retlw	107	;'k'
   470  0815  343A               	retlw	58	;':'
   471  0816  3400               	retlw	0
   472  0817                     STR_2:
   473  0817  3420               	retlw	32	;' '
   474  0818  3420               	retlw	32	;' '
   475  0819  3400               	retlw	0
   476  081A                     STR_4:
   477  081A  3425               	retlw	37	;'%'
   478  081B  3400               	retlw	0
   479  0818                     
   480                           	psect	cinit
   481  0013                     start_initialization:	
   482                           ; #config settings
   483                           
   484  0013                     __initialization:
   485                           
   486                           ; Initialize objects allocated to BANK0
   487  0013  120A  118A  27FF  120A  118A  	fcall	__pidataBANK0	;fetch initializer
   488  0018  00E5               	movwf	__pdataBANK0& (0+127)
   489                           
   490                           ; Clear objects allocated to BANK0
   491  0019  01DC               	clrf	__pbssBANK0& (0+127)
   492  001A  01DD               	clrf	(__pbssBANK0+1)& (0+127)
   493  001B  01DE               	clrf	(__pbssBANK0+2)& (0+127)
   494  001C  01DF               	clrf	(__pbssBANK0+3)& (0+127)
   495  001D  01E0               	clrf	(__pbssBANK0+4)& (0+127)
   496  001E  01E1               	clrf	(__pbssBANK0+5)& (0+127)
   497  001F  01E2               	clrf	(__pbssBANK0+6)& (0+127)
   498  0020  01E3               	clrf	(__pbssBANK0+7)& (0+127)
   499  0021  01E4               	clrf	(__pbssBANK0+8)& (0+127)
   500                           
   501                           ; Clear objects allocated to COMMON
   502  0022  01F9               	clrf	__pbssCOMMON& (0+127)
   503  0023  01FA               	clrf	(__pbssCOMMON+1)& (0+127)
   504  0024  01FB               	clrf	(__pbssCOMMON+2)& (0+127)
   505  0025                     end_of_initialization:	
   506                           ;End of C runtime variable initialization code
   507                           
   508  0025                     __end_of__initialization:
   509  0025  0183               	clrf	3
   510  0026  120A  118A  2829   	ljmp	_main	;jump to C main() function
   511                           
   512                           	psect	bssCOMMON
   513  0079                     __pbssCOMMON:
   514  0079                     _distancia:
   515  0079                     	ds	1
   516  007A                     _i:
   517  007A                     	ds	1
   518  007B                     _opcion:
   519  007B                     	ds	1
   520                           
   521                           	psect	bssBANK0
   522  005C                     __pbssBANK0:
   523  005C                     _Luz:
   524  005C                     	ds	2
   525  005E                     _Centena:
   526  005E                     	ds	1
   527  005F                     _Decena:
   528  005F                     	ds	1
   529  0060                     _Unidad:
   530  0060                     	ds	1
   531  0061                     _Sp:
   532  0061                     	ds	1
   533  0062                     _CC:
   534  0062                     	ds	1
   535  0063                     _LZ:
   536  0063                     	ds	2
   537                           
   538                           	psect	dataBANK0
   539  0065                     __pdataBANK0:
   540  0065                     _Tnk:
   541  0065                     	ds	1
   542                           
   543                           	psect	cstackCOMMON
   544  0070                     __pcstackCOMMON:
   545  0070                     ?_setup:
   546  0070                     ?_Lcd_Init:	
   547                           ; 1 bytes @ 0x0
   548                           
   549  0070                     ?_Lcd_Clear:	
   550                           ; 1 bytes @ 0x0
   551                           
   552  0070                     ?_Lcd_Write_String:	
   553                           ; 1 bytes @ 0x0
   554                           
   555  0070                     ?_I2C_Master_Start:	
   556                           ; 1 bytes @ 0x0
   557                           
   558  0070                     ?_I2C_Master_Stop:	
   559                           ; 1 bytes @ 0x0
   560                           
   561  0070                     ?_Lcd_Write_Char:	
   562                           ; 1 bytes @ 0x0
   563                           
   564  0070                     ?_main:	
   565                           ; 1 bytes @ 0x0
   566                           
   567  0070                     ?_isr:	
   568                           ; 1 bytes @ 0x0
   569                           
   570  0070                     ?_Lcd_Port:	
   571                           ; 1 bytes @ 0x0
   572                           
   573  0070                     ?_Lcd_Cmd:	
   574                           ; 1 bytes @ 0x0
   575                           
   576  0070                     ?_I2C_Master_Wait:	
   577                           ; 1 bytes @ 0x0
   578                           
   579  0070                     ?_strlen:	
   580                           ; 1 bytes @ 0x0
   581                           
   582  0070                     ?___awdiv:	
   583                           ; 2 bytes @ 0x0
   584                           
   585  0070                     ___awdiv@divisor:	
   586                           ; 2 bytes @ 0x0
   587                           
   588                           
   589                           ; 2 bytes @ 0x0
   590  0070                     	ds	2
   591  0072                     ??_strlen:
   592  0072                     ___awdiv@dividend:	
   593                           ; 1 bytes @ 0x2
   594                           
   595                           
   596                           ; 2 bytes @ 0x2
   597  0072                     	ds	1
   598  0073                     strlen@s:
   599                           
   600                           ; 1 bytes @ 0x3
   601  0073                     	ds	1
   602  0074                     ??___awdiv:
   603  0074                     strlen@cp:	
   604                           ; 1 bytes @ 0x4
   605                           
   606                           
   607                           ; 1 bytes @ 0x4
   608  0074                     	ds	1
   609  0075                     ___awdiv@counter:
   610                           
   611                           ; 1 bytes @ 0x5
   612  0075                     	ds	1
   613  0076                     ___awdiv@sign:
   614                           
   615                           ; 1 bytes @ 0x6
   616  0076                     	ds	1
   617  0077                     ___awdiv@quotient:
   618                           
   619                           ; 2 bytes @ 0x7
   620  0077                     	ds	2
   621                           
   622                           	psect	cstackBANK0
   623  0020                     __pcstackBANK0:
   624  0020                     ??_isr:
   625                           
   626                           ; 1 bytes @ 0x0
   627  0020                     	ds	6
   628  0026                     ??_I2C_Master_Start:
   629  0026                     ?_I2C_Master_Write:	
   630                           ; 1 bytes @ 0x6
   631                           
   632  0026                     ??_I2C_Master_Stop:	
   633                           ; 1 bytes @ 0x6
   634                           
   635  0026                     ??_Lcd_Port:	
   636                           ; 1 bytes @ 0x6
   637                           
   638  0026                     ??_I2C_Master_Wait:	
   639                           ; 1 bytes @ 0x6
   640                           
   641  0026                     ?_I2C_Master_Read:	
   642                           ; 1 bytes @ 0x6
   643                           
   644  0026                     ?___wmul:	
   645                           ; 2 bytes @ 0x6
   646                           
   647  0026                     ?___lwdiv:	
   648                           ; 2 bytes @ 0x6
   649                           
   650  0026                     ?___lldiv:	
   651                           ; 2 bytes @ 0x6
   652                           
   653  0026                     ?___xxtofl:	
   654                           ; 4 bytes @ 0x6
   655                           
   656  0026                     Lcd_Port@a:	
   657                           ; 4 bytes @ 0x6
   658                           
   659  0026                     I2C_Master_Write@d:	
   660                           ; 1 bytes @ 0x6
   661                           
   662  0026                     I2C_Master_Read@a:	
   663                           ; 2 bytes @ 0x6
   664                           
   665  0026                     ___wmul@multiplier:	
   666                           ; 2 bytes @ 0x6
   667                           
   668  0026                     ___lwdiv@divisor:	
   669                           ; 2 bytes @ 0x6
   670                           
   671  0026                     ___lldiv@divisor:	
   672                           ; 2 bytes @ 0x6
   673                           
   674  0026                     ___xxtofl@val:	
   675                           ; 4 bytes @ 0x6
   676                           
   677                           
   678                           ; 4 bytes @ 0x6
   679  0026                     	ds	1
   680  0027                     ??_Lcd_Write_Char:
   681  0027                     ??_Lcd_Cmd:	
   682                           ; 1 bytes @ 0x7
   683                           
   684                           
   685                           ; 1 bytes @ 0x7
   686  0027                     	ds	1
   687  0028                     ??_I2C_Master_Write:
   688  0028                     ??_I2C_Master_Read:	
   689                           ; 1 bytes @ 0x8
   690                           
   691  0028                     Lcd_Write_Char@temp:	
   692                           ; 1 bytes @ 0x8
   693                           
   694  0028                     ___wmul@multiplicand:	
   695                           ; 1 bytes @ 0x8
   696                           
   697  0028                     ___lwdiv@dividend:	
   698                           ; 2 bytes @ 0x8
   699                           
   700                           
   701                           ; 2 bytes @ 0x8
   702  0028                     	ds	1
   703  0029                     Lcd_Cmd@a:
   704  0029                     Lcd_Write_Char@y:	
   705                           ; 1 bytes @ 0x9
   706                           
   707                           
   708                           ; 1 bytes @ 0x9
   709  0029                     	ds	1
   710  002A                     ??_Lcd_Init:
   711  002A                     ??_Lcd_Clear:	
   712                           ; 1 bytes @ 0xA
   713                           
   714  002A                     ?_Lcd_Set_Cursor:	
   715                           ; 1 bytes @ 0xA
   716                           
   717  002A                     ??___wmul:	
   718                           ; 1 bytes @ 0xA
   719                           
   720  002A                     ??___lwdiv:	
   721                           ; 1 bytes @ 0xA
   722                           
   723  002A                     ??___xxtofl:	
   724                           ; 1 bytes @ 0xA
   725                           
   726  002A                     Lcd_Set_Cursor@b:	
   727                           ; 1 bytes @ 0xA
   728                           
   729  002A                     Lcd_Write_Char@a:	
   730                           ; 1 bytes @ 0xA
   731                           
   732  002A                     I2C_Master_Read@temp:	
   733                           ; 1 bytes @ 0xA
   734                           
   735  002A                     ___wmul@product:	
   736                           ; 2 bytes @ 0xA
   737                           
   738  002A                     ___lldiv@dividend:	
   739                           ; 2 bytes @ 0xA
   740                           
   741                           
   742                           ; 4 bytes @ 0xA
   743  002A                     	ds	1
   744  002B                     ??_Lcd_Set_Cursor:
   745  002B                     ??_Lcd_Write_String:	
   746                           ; 1 bytes @ 0xB
   747                           
   748  002B                     Lcd_Write_String@i:	
   749                           ; 1 bytes @ 0xB
   750                           
   751  002B                     ___lwdiv@quotient:	
   752                           ; 2 bytes @ 0xB
   753                           
   754                           
   755                           ; 2 bytes @ 0xB
   756  002B                     	ds	2
   757  002D                     Lcd_Set_Cursor@a:
   758  002D                     Lcd_Write_String@a:	
   759                           ; 1 bytes @ 0xD
   760                           
   761  002D                     ___lwdiv@counter:	
   762                           ; 1 bytes @ 0xD
   763                           
   764                           
   765                           ; 1 bytes @ 0xD
   766  002D                     	ds	1
   767  002E                     ?_Decimal:
   768  002E                     ??___lldiv:	
   769                           ; 1 bytes @ 0xE
   770                           
   771  002E                     Lcd_Set_Cursor@z:	
   772                           ; 1 bytes @ 0xE
   773                           
   774  002E                     ___xxtofl@sign:	
   775                           ; 1 bytes @ 0xE
   776                           
   777  002E                     Decimal@variable:	
   778                           ; 1 bytes @ 0xE
   779                           
   780                           
   781                           ; 2 bytes @ 0xE
   782  002E                     	ds	1
   783  002F                     Lcd_Set_Cursor@y:
   784  002F                     ___xxtofl@exp:	
   785                           ; 1 bytes @ 0xF
   786                           
   787  002F                     ___lldiv@quotient:	
   788                           ; 1 bytes @ 0xF
   789                           
   790                           
   791                           ; 4 bytes @ 0xF
   792  002F                     	ds	1
   793  0030                     ??_Decimal:
   794  0030                     Lcd_Set_Cursor@temp:	
   795                           ; 1 bytes @ 0x10
   796                           
   797  0030                     ___xxtofl@arg:	
   798                           ; 1 bytes @ 0x10
   799                           
   800                           
   801                           ; 4 bytes @ 0x10
   802  0030                     	ds	2
   803  0032                     Decimal@valor:
   804                           
   805                           ; 2 bytes @ 0x12
   806  0032                     	ds	1
   807  0033                     ___lldiv@counter:
   808                           
   809                           ; 1 bytes @ 0x13
   810  0033                     	ds	1
   811  0034                     ?_I2C_Master_Init:
   812  0034                     ?___fldiv:	
   813                           ; 1 bytes @ 0x14
   814                           
   815  0034                     I2C_Master_Init@c:	
   816                           ; 4 bytes @ 0x14
   817                           
   818  0034                     ___fldiv@a:	
   819                           ; 4 bytes @ 0x14
   820                           
   821                           
   822                           ; 4 bytes @ 0x14
   823  0034                     	ds	4
   824  0038                     ??_I2C_Master_Init:
   825  0038                     ___fldiv@b:	
   826                           ; 1 bytes @ 0x18
   827                           
   828                           
   829                           ; 4 bytes @ 0x18
   830  0038                     	ds	4
   831  003C                     ??_setup:
   832  003C                     ??___fldiv:	
   833                           ; 1 bytes @ 0x1C
   834                           
   835                           
   836                           ; 1 bytes @ 0x1C
   837  003C                     	ds	5
   838  0041                     ___fldiv@rem:
   839                           
   840                           ; 4 bytes @ 0x21
   841  0041                     	ds	4
   842  0045                     ___fldiv@sign:
   843                           
   844                           ; 1 bytes @ 0x25
   845  0045                     	ds	1
   846  0046                     ___fldiv@new_exp:
   847                           
   848                           ; 2 bytes @ 0x26
   849  0046                     	ds	2
   850  0048                     ___fldiv@grs:
   851                           
   852                           ; 4 bytes @ 0x28
   853  0048                     	ds	4
   854  004C                     ___fldiv@bexp:
   855                           
   856                           ; 1 bytes @ 0x2C
   857  004C                     	ds	1
   858  004D                     ___fldiv@aexp:
   859                           
   860                           ; 1 bytes @ 0x2D
   861  004D                     	ds	1
   862  004E                     ?___fltol:
   863  004E                     ___fltol@f1:	
   864                           ; 4 bytes @ 0x2E
   865                           
   866                           
   867                           ; 4 bytes @ 0x2E
   868  004E                     	ds	4
   869  0052                     ??___fltol:
   870                           
   871                           ; 1 bytes @ 0x32
   872  0052                     	ds	5
   873  0057                     ___fltol@sign1:
   874                           
   875                           ; 1 bytes @ 0x37
   876  0057                     	ds	1
   877  0058                     ___fltol@exp1:
   878                           
   879                           ; 1 bytes @ 0x38
   880  0058                     	ds	1
   881  0059                     ??_main:
   882                           
   883                           ; 1 bytes @ 0x39
   884  0059                     	ds	3
   885                           
   886                           	psect	maintext
   887  0029                     __pmaintext:	
   888 ;;
   889 ;;Main: autosize = 0, tempsize = 3, incstack = 0, save=0
   890 ;;
   891 ;; *************** function _main *****************
   892 ;; Defined at:
   893 ;;		line 73 in file "P1 Master.c"
   894 ;; Parameters:    Size  Location     Type
   895 ;;		None
   896 ;; Auto vars:     Size  Location     Type
   897 ;;		None
   898 ;; Return value:  Size  Location     Type
   899 ;;                  1    wreg      void 
   900 ;; Registers used:
   901 ;;		wreg, fsr0l, fsr0h, status,2, status,0, btemp+1, pclath, cstack
   902 ;; Tracked objects:
   903 ;;		On entry : B00/0
   904 ;;		On exit  : 0/0
   905 ;;		Unchanged: 0/0
   906 ;; Data sizes:     COMMON   BANK0   BANK1   BANK3   BANK2
   907 ;;      Params:         0       0       0       0       0
   908 ;;      Locals:         0       0       0       0       0
   909 ;;      Temps:          0       3       0       0       0
   910 ;;      Totals:         0       3       0       0       0
   911 ;;Total ram usage:        3 bytes
   912 ;; Hardware stack levels required when called: 5
   913 ;; This function calls:
   914 ;;		_Decimal
   915 ;;		_I2C_Master_Read
   916 ;;		_I2C_Master_Start
   917 ;;		_I2C_Master_Stop
   918 ;;		_I2C_Master_Write
   919 ;;		_Lcd_Clear
   920 ;;		_Lcd_Init
   921 ;;		_Lcd_Set_Cursor
   922 ;;		_Lcd_Write_Char
   923 ;;		_Lcd_Write_String
   924 ;;		___fldiv
   925 ;;		___fltol
   926 ;;		___xxtofl
   927 ;;		_setup
   928 ;; This function is called by:
   929 ;;		Startup code after reset
   930 ;; This function uses a non-reentrant model
   931 ;;
   932                           
   933                           
   934                           ;psect for function _main
   935  0029                     _main:
   936  0029                     l2080:	
   937                           ;incstack = 0
   938                           ; Regs used in _main: [wreg-fsr0h+status,2+status,0+btemp+1+pclath+cstack]
   939                           
   940                           
   941                           ;P1 Master.c: 74:     setup();
   942  0029  120A  158A  2779  120A  118A  	fcall	_setup
   943                           
   944                           ;P1 Master.c: 75:     Lcd_Init();
   945  002E  120A  118A  272E  120A  118A  	fcall	_Lcd_Init
   946                           
   947                           ;P1 Master.c: 76:     Lcd_Clear();
   948  0033  120A  118A  27E8  120A  118A  	fcall	_Lcd_Clear
   949                           
   950                           ;P1 Master.c: 77:     Lcd_Set_Cursor(1,1);
   951  0038  1283               	bcf	3,5	;RP0=0, select bank0
   952  0039  1303               	bcf	3,6	;RP1=0, select bank0
   953  003A  01AA               	clrf	Lcd_Set_Cursor@b
   954  003B  0AAA               	incf	Lcd_Set_Cursor@b,f
   955  003C  3001               	movlw	1
   956  003D  120A  118A  2790  120A  118A  	fcall	_Lcd_Set_Cursor
   957  0042                     l2082:
   958                           
   959                           ;P1 Master.c: 78:     Lcd_Write_String("CC: Sp: Lz: Tnk:");
   960  0042  3001               	movlw	(low ((STR_1-__stringbase)| (0+32768)))& (0+255)
   961  0043  120A  158A  26A7  120A  118A  	fcall	_Lcd_Write_String
   962  0048                     l2084:
   963                           
   964                           ;P1 Master.c: 85:         I2C_Master_Start();
   965  0048  120A  158A  260C  120A  118A  	fcall	_I2C_Master_Start
   966  004D                     l2086:
   967                           
   968                           ;P1 Master.c: 86:         I2C_Master_Write(0x60);
   969  004D  3060               	movlw	96
   970  004E  1283               	bcf	3,5	;RP0=0, select bank0
   971  004F  1303               	bcf	3,6	;RP1=0, select bank0
   972  0050  00A6               	movwf	I2C_Master_Write@d
   973  0051  3000               	movlw	0
   974  0052  00A7               	movwf	I2C_Master_Write@d+1
   975  0053  120A  118A  27F5  120A  118A  	fcall	_I2C_Master_Write
   976  0058                     l2088:
   977                           
   978                           ;P1 Master.c: 87:         I2C_Master_Write(0);
   979  0058  3000               	movlw	0
   980  0059  1283               	bcf	3,5	;RP0=0, select bank0
   981  005A  1303               	bcf	3,6	;RP1=0, select bank0
   982  005B  00A6               	movwf	I2C_Master_Write@d
   983  005C  00A7               	movwf	I2C_Master_Write@d+1
   984  005D  120A  118A  27F5  120A  118A  	fcall	_I2C_Master_Write
   985  0062                     l2090:
   986                           
   987                           ;P1 Master.c: 88:         I2C_Master_Stop();
   988  0062  120A  158A  2615  120A  118A  	fcall	_I2C_Master_Stop
   989  0067                     l2092:
   990                           
   991                           ;P1 Master.c: 89:         _delay((unsigned long)((200)*(8000000/4000.0)));
   992  0067  3003               	movlw	3
   993  0068  1283               	bcf	3,5	;RP0=0, select bank0
   994  0069  1303               	bcf	3,6	;RP1=0, select bank0
   995  006A  00DB               	movwf	??_main+2
   996  006B  3008               	movlw	8
   997  006C  00DA               	movwf	??_main+1
   998  006D  3076               	movlw	118
   999  006E  00D9               	movwf	??_main
  1000  006F                     u1997:
  1001  006F  0BD9               	decfsz	??_main,f
  1002  0070  286F               	goto	u1997
  1003  0071  0BDA               	decfsz	??_main+1,f
  1004  0072  286F               	goto	u1997
  1005  0073  0BDB               	decfsz	??_main+2,f
  1006  0074  286F               	goto	u1997
  1007  0075  0000               	nop
  1008  0076                     l2094:
  1009                           
  1010                           ;P1 Master.c: 91:         I2C_Master_Start();
  1011  0076  120A  158A  260C  120A  118A  	fcall	_I2C_Master_Start
  1012  007B                     l2096:
  1013                           
  1014                           ;P1 Master.c: 92:         I2C_Master_Write(0x61);
  1015  007B  3061               	movlw	97
  1016  007C  1283               	bcf	3,5	;RP0=0, select bank0
  1017  007D  1303               	bcf	3,6	;RP1=0, select bank0
  1018  007E  00A6               	movwf	I2C_Master_Write@d
  1019  007F  3000               	movlw	0
  1020  0080  00A7               	movwf	I2C_Master_Write@d+1
  1021  0081  120A  118A  27F5  120A  118A  	fcall	_I2C_Master_Write
  1022  0086                     l2098:
  1023                           
  1024                           ;P1 Master.c: 93:         CC = I2C_Master_Read(0);
  1025  0086  3000               	movlw	0
  1026  0087  1283               	bcf	3,5	;RP0=0, select bank0
  1027  0088  1303               	bcf	3,6	;RP1=0, select bank0
  1028  0089  00A6               	movwf	I2C_Master_Read@a
  1029  008A  00A7               	movwf	I2C_Master_Read@a+1
  1030  008B  120A  158A  26D0  120A  118A  	fcall	_I2C_Master_Read
  1031  0090  1283               	bcf	3,5	;RP0=0, select bank0
  1032  0091  1303               	bcf	3,6	;RP1=0, select bank0
  1033  0092  0826               	movf	?_I2C_Master_Read,w
  1034  0093  00D9               	movwf	??_main
  1035  0094  0859               	movf	??_main,w
  1036  0095  00E2               	movwf	_CC
  1037  0096                     l2100:
  1038                           
  1039                           ;P1 Master.c: 94:         I2C_Master_Stop();
  1040  0096  120A  158A  2615  120A  118A  	fcall	_I2C_Master_Stop
  1041  009B                     l2102:
  1042                           
  1043                           ;P1 Master.c: 95:         _delay((unsigned long)((200)*(8000000/4000.0)));
  1044  009B  3003               	movlw	3
  1045  009C  1283               	bcf	3,5	;RP0=0, select bank0
  1046  009D  1303               	bcf	3,6	;RP1=0, select bank0
  1047  009E  00DB               	movwf	??_main+2
  1048  009F  3008               	movlw	8
  1049  00A0  00DA               	movwf	??_main+1
  1050  00A1  3076               	movlw	118
  1051  00A2  00D9               	movwf	??_main
  1052  00A3                     u2007:
  1053  00A3  0BD9               	decfsz	??_main,f
  1054  00A4  28A3               	goto	u2007
  1055  00A5  0BDA               	decfsz	??_main+1,f
  1056  00A6  28A3               	goto	u2007
  1057  00A7  0BDB               	decfsz	??_main+2,f
  1058  00A8  28A3               	goto	u2007
  1059  00A9  0000               	nop
  1060  00AA                     l2104:
  1061                           
  1062                           ;P1 Master.c: 98:         Decimal(CC);
  1063  00AA  1283               	bcf	3,5	;RP0=0, select bank0
  1064  00AB  1303               	bcf	3,6	;RP1=0, select bank0
  1065  00AC  0862               	movf	_CC,w
  1066  00AD  00D9               	movwf	??_main
  1067  00AE  01DA               	clrf	??_main+1
  1068  00AF  0859               	movf	??_main,w
  1069  00B0  00AE               	movwf	Decimal@variable
  1070  00B1  085A               	movf	??_main+1,w
  1071  00B2  00AF               	movwf	Decimal@variable+1
  1072  00B3  120A  118A  25EB  120A  118A  	fcall	_Decimal
  1073  00B8                     l2106:
  1074                           
  1075                           ;P1 Master.c: 99:         Lcd_Set_Cursor(2,1);
  1076  00B8  1283               	bcf	3,5	;RP0=0, select bank0
  1077  00B9  1303               	bcf	3,6	;RP1=0, select bank0
  1078  00BA  01AA               	clrf	Lcd_Set_Cursor@b
  1079  00BB  0AAA               	incf	Lcd_Set_Cursor@b,f
  1080  00BC  3002               	movlw	2
  1081  00BD  120A  118A  2790  120A  118A  	fcall	_Lcd_Set_Cursor
  1082  00C2                     l2108:
  1083                           
  1084                           ;P1 Master.c: 100:         Lcd_Write_Char(Decena);
  1085  00C2  1283               	bcf	3,5	;RP0=0, select bank0
  1086  00C3  1303               	bcf	3,6	;RP1=0, select bank0
  1087  00C4  085F               	movf	_Decena,w
  1088  00C5  120A  158A  273C  120A  118A  	fcall	_Lcd_Write_Char
  1089  00CA                     l2110:
  1090                           
  1091                           ;P1 Master.c: 101:         Lcd_Write_Char(Unidad);
  1092  00CA  1283               	bcf	3,5	;RP0=0, select bank0
  1093  00CB  1303               	bcf	3,6	;RP1=0, select bank0
  1094  00CC  0860               	movf	_Unidad,w
  1095  00CD  120A  158A  273C  120A  118A  	fcall	_Lcd_Write_Char
  1096  00D2                     l2112:
  1097                           
  1098                           ;P1 Master.c: 102:         Lcd_Write_String("  ");
  1099  00D2  3012               	movlw	(low ((STR_2-__stringbase)| (0+32768)))& (0+255)
  1100  00D3  120A  158A  26A7  120A  118A  	fcall	_Lcd_Write_String
  1101                           
  1102                           ;P1 Master.c: 105:         I2C_Master_Start();
  1103  00D8  120A  158A  260C  120A  118A  	fcall	_I2C_Master_Start
  1104                           
  1105                           ;P1 Master.c: 106:         I2C_Master_Write(0x60);
  1106  00DD  3060               	movlw	96
  1107  00DE  1283               	bcf	3,5	;RP0=0, select bank0
  1108  00DF  1303               	bcf	3,6	;RP1=0, select bank0
  1109  00E0  00A6               	movwf	I2C_Master_Write@d
  1110  00E1  3000               	movlw	0
  1111  00E2  00A7               	movwf	I2C_Master_Write@d+1
  1112  00E3  120A  118A  27F5  120A  118A  	fcall	_I2C_Master_Write
  1113                           
  1114                           ;P1 Master.c: 107:         I2C_Master_Write(1);
  1115  00E8  3001               	movlw	1
  1116  00E9  1283               	bcf	3,5	;RP0=0, select bank0
  1117  00EA  1303               	bcf	3,6	;RP1=0, select bank0
  1118  00EB  00A6               	movwf	I2C_Master_Write@d
  1119  00EC  3000               	movlw	0
  1120  00ED  00A7               	movwf	I2C_Master_Write@d+1
  1121  00EE  120A  118A  27F5  120A  118A  	fcall	_I2C_Master_Write
  1122                           
  1123                           ;P1 Master.c: 108:         I2C_Master_Stop();
  1124  00F3  120A  158A  2615  120A  118A  	fcall	_I2C_Master_Stop
  1125  00F8                     l2114:
  1126                           
  1127                           ;P1 Master.c: 109:         _delay((unsigned long)((200)*(8000000/4000.0)));
  1128  00F8  3003               	movlw	3
  1129  00F9  1283               	bcf	3,5	;RP0=0, select bank0
  1130  00FA  1303               	bcf	3,6	;RP1=0, select bank0
  1131  00FB  00DB               	movwf	??_main+2
  1132  00FC  3008               	movlw	8
  1133  00FD  00DA               	movwf	??_main+1
  1134  00FE  3076               	movlw	118
  1135  00FF  00D9               	movwf	??_main
  1136  0100                     u2017:
  1137  0100  0BD9               	decfsz	??_main,f
  1138  0101  2900               	goto	u2017
  1139  0102  0BDA               	decfsz	??_main+1,f
  1140  0103  2900               	goto	u2017
  1141  0104  0BDB               	decfsz	??_main+2,f
  1142  0105  2900               	goto	u2017
  1143  0106  0000               	nop
  1144  0107                     l2116:
  1145                           
  1146                           ;P1 Master.c: 111:         I2C_Master_Start();
  1147  0107  120A  158A  260C  120A  118A  	fcall	_I2C_Master_Start
  1148  010C                     l2118:
  1149                           
  1150                           ;P1 Master.c: 112:         I2C_Master_Write(0x61);
  1151  010C  3061               	movlw	97
  1152  010D  1283               	bcf	3,5	;RP0=0, select bank0
  1153  010E  1303               	bcf	3,6	;RP1=0, select bank0
  1154  010F  00A6               	movwf	I2C_Master_Write@d
  1155  0110  3000               	movlw	0
  1156  0111  00A7               	movwf	I2C_Master_Write@d+1
  1157  0112  120A  118A  27F5  120A  118A  	fcall	_I2C_Master_Write
  1158  0117                     l2120:
  1159                           
  1160                           ;P1 Master.c: 113:         Sp = I2C_Master_Read(0);
  1161  0117  3000               	movlw	0
  1162  0118  1283               	bcf	3,5	;RP0=0, select bank0
  1163  0119  1303               	bcf	3,6	;RP1=0, select bank0
  1164  011A  00A6               	movwf	I2C_Master_Read@a
  1165  011B  00A7               	movwf	I2C_Master_Read@a+1
  1166  011C  120A  158A  26D0  120A  118A  	fcall	_I2C_Master_Read
  1167  0121  1283               	bcf	3,5	;RP0=0, select bank0
  1168  0122  1303               	bcf	3,6	;RP1=0, select bank0
  1169  0123  0826               	movf	?_I2C_Master_Read,w
  1170  0124  00D9               	movwf	??_main
  1171  0125  0859               	movf	??_main,w
  1172  0126  00E1               	movwf	_Sp
  1173  0127                     l2122:
  1174                           
  1175                           ;P1 Master.c: 114:         I2C_Master_Stop();
  1176  0127  120A  158A  2615  120A  118A  	fcall	_I2C_Master_Stop
  1177  012C                     l2124:
  1178                           
  1179                           ;P1 Master.c: 115:         _delay((unsigned long)((200)*(8000000/4000.0)));
  1180  012C  3003               	movlw	3
  1181  012D  1283               	bcf	3,5	;RP0=0, select bank0
  1182  012E  1303               	bcf	3,6	;RP1=0, select bank0
  1183  012F  00DB               	movwf	??_main+2
  1184  0130  3008               	movlw	8
  1185  0131  00DA               	movwf	??_main+1
  1186  0132  3076               	movlw	118
  1187  0133  00D9               	movwf	??_main
  1188  0134                     u2027:
  1189  0134  0BD9               	decfsz	??_main,f
  1190  0135  2934               	goto	u2027
  1191  0136  0BDA               	decfsz	??_main+1,f
  1192  0137  2934               	goto	u2027
  1193  0138  0BDB               	decfsz	??_main+2,f
  1194  0139  2934               	goto	u2027
  1195  013A  0000               	nop
  1196                           
  1197                           ;P1 Master.c: 118:         Decimal(Sp);
  1198  013B  1283               	bcf	3,5	;RP0=0, select bank0
  1199  013C  1303               	bcf	3,6	;RP1=0, select bank0
  1200  013D  0861               	movf	_Sp,w
  1201  013E  00D9               	movwf	??_main
  1202  013F  01DA               	clrf	??_main+1
  1203  0140  0859               	movf	??_main,w
  1204  0141  00AE               	movwf	Decimal@variable
  1205  0142  085A               	movf	??_main+1,w
  1206  0143  00AF               	movwf	Decimal@variable+1
  1207  0144  120A  118A  25EB  120A  118A  	fcall	_Decimal
  1208                           
  1209                           ;P1 Master.c: 119:         Lcd_Write_Char(Decena);
  1210  0149  1283               	bcf	3,5	;RP0=0, select bank0
  1211  014A  1303               	bcf	3,6	;RP1=0, select bank0
  1212  014B  085F               	movf	_Decena,w
  1213  014C  120A  158A  273C  120A  118A  	fcall	_Lcd_Write_Char
  1214                           
  1215                           ;P1 Master.c: 120:         Lcd_Write_Char(Unidad);
  1216  0151  1283               	bcf	3,5	;RP0=0, select bank0
  1217  0152  1303               	bcf	3,6	;RP1=0, select bank0
  1218  0153  0860               	movf	_Unidad,w
  1219  0154  120A  158A  273C  120A  118A  	fcall	_Lcd_Write_Char
  1220  0159                     l2126:
  1221                           
  1222                           ;P1 Master.c: 121:         Lcd_Write_String("  ");
  1223  0159  3012               	movlw	(low ((STR_2-__stringbase)| (0+32768)))& (0+255)
  1224  015A  120A  158A  26A7  120A  118A  	fcall	_Lcd_Write_String
  1225  015F                     l2128:
  1226                           
  1227                           ;P1 Master.c: 124:         I2C_Master_Start();
  1228  015F  120A  158A  260C  120A  118A  	fcall	_I2C_Master_Start
  1229  0164                     l2130:
  1230                           
  1231                           ;P1 Master.c: 125:         I2C_Master_Write(0x71);
  1232  0164  3071               	movlw	113
  1233  0165  1283               	bcf	3,5	;RP0=0, select bank0
  1234  0166  1303               	bcf	3,6	;RP1=0, select bank0
  1235  0167  00A6               	movwf	I2C_Master_Write@d
  1236  0168  3000               	movlw	0
  1237  0169  00A7               	movwf	I2C_Master_Write@d+1
  1238  016A  120A  118A  27F5  120A  118A  	fcall	_I2C_Master_Write
  1239  016F                     l2132:
  1240                           
  1241                           ;P1 Master.c: 126:         Luz = I2C_Master_Read(0);
  1242  016F  3000               	movlw	0
  1243  0170  1283               	bcf	3,5	;RP0=0, select bank0
  1244  0171  1303               	bcf	3,6	;RP1=0, select bank0
  1245  0172  00A6               	movwf	I2C_Master_Read@a
  1246  0173  00A7               	movwf	I2C_Master_Read@a+1
  1247  0174  120A  158A  26D0  120A  118A  	fcall	_I2C_Master_Read
  1248  0179  1283               	bcf	3,5	;RP0=0, select bank0
  1249  017A  1303               	bcf	3,6	;RP1=0, select bank0
  1250  017B  0827               	movf	?_I2C_Master_Read+1,w
  1251  017C  00DD               	movwf	_Luz+1
  1252  017D  0826               	movf	?_I2C_Master_Read,w
  1253  017E  00DC               	movwf	_Luz
  1254  017F                     l2134:
  1255                           
  1256                           ;P1 Master.c: 127:         I2C_Master_Stop();
  1257  017F  120A  158A  2615  120A  118A  	fcall	_I2C_Master_Stop
  1258  0184                     l2136:
  1259                           
  1260                           ;P1 Master.c: 128:         _delay((unsigned long)((200)*(8000000/4000.0)));
  1261  0184  3003               	movlw	3
  1262  0185  1283               	bcf	3,5	;RP0=0, select bank0
  1263  0186  1303               	bcf	3,6	;RP1=0, select bank0
  1264  0187  00DB               	movwf	??_main+2
  1265  0188  3008               	movlw	8
  1266  0189  00DA               	movwf	??_main+1
  1267  018A  3076               	movlw	118
  1268  018B  00D9               	movwf	??_main
  1269  018C                     u2037:
  1270  018C  0BD9               	decfsz	??_main,f
  1271  018D  298C               	goto	u2037
  1272  018E  0BDA               	decfsz	??_main+1,f
  1273  018F  298C               	goto	u2037
  1274  0190  0BDB               	decfsz	??_main+2,f
  1275  0191  298C               	goto	u2037
  1276  0192  0000               	nop
  1277  0193                     l2138:
  1278                           
  1279                           ;P1 Master.c: 130:         Luz = Luz/2.57;
  1280  0193  1283               	bcf	3,5	;RP0=0, select bank0
  1281  0194  1303               	bcf	3,6	;RP1=0, select bank0
  1282  0195  085C               	movf	_Luz,w
  1283  0196  00A6               	movwf	___xxtofl@val
  1284  0197  085D               	movf	_Luz+1,w
  1285  0198  00A7               	movwf	___xxtofl@val+1
  1286  0199  01A8               	clrf	___xxtofl@val+2
  1287  019A  01A9               	clrf	___xxtofl@val+3
  1288  019B  3000               	movlw	0
  1289  019C  120A  118A  2435  120A  118A  	fcall	___xxtofl
  1290  01A1  1283               	bcf	3,5	;RP0=0, select bank0
  1291  01A2  1303               	bcf	3,6	;RP1=0, select bank0
  1292  01A3  0829               	movf	?___xxtofl+3,w
  1293  01A4  00BB               	movwf	___fldiv@b+3
  1294  01A5  0828               	movf	?___xxtofl+2,w
  1295  01A6  00BA               	movwf	___fldiv@b+2
  1296  01A7  0827               	movf	?___xxtofl+1,w
  1297  01A8  00B9               	movwf	___fldiv@b+1
  1298  01A9  0826               	movf	?___xxtofl,w
  1299  01AA  00B8               	movwf	___fldiv@b
  1300  01AB  3040               	movlw	64
  1301  01AC  00B7               	movwf	___fldiv@a+3
  1302  01AD  3024               	movlw	36
  1303  01AE  00B6               	movwf	___fldiv@a+2
  1304  01AF  307A               	movlw	122
  1305  01B0  00B5               	movwf	___fldiv@a+1
  1306  01B1  30E1               	movlw	225
  1307  01B2  00B4               	movwf	___fldiv@a
  1308  01B3  120A  118A  2258  120A  118A  	fcall	___fldiv
  1309  01B8  1283               	bcf	3,5	;RP0=0, select bank0
  1310  01B9  1303               	bcf	3,6	;RP1=0, select bank0
  1311  01BA  0837               	movf	?___fldiv+3,w
  1312  01BB  00D1               	movwf	___fltol@f1+3
  1313  01BC  0836               	movf	?___fldiv+2,w
  1314  01BD  00D0               	movwf	___fltol@f1+2
  1315  01BE  0835               	movf	?___fldiv+1,w
  1316  01BF  00CF               	movwf	___fltol@f1+1
  1317  01C0  0834               	movf	?___fldiv,w
  1318  01C1  00CE               	movwf	___fltol@f1
  1319  01C2  120A  118A  256F  120A  118A  	fcall	___fltol
  1320  01C7  1283               	bcf	3,5	;RP0=0, select bank0
  1321  01C8  1303               	bcf	3,6	;RP1=0, select bank0
  1322  01C9  084F               	movf	?___fltol+1,w
  1323  01CA  00DD               	movwf	_Luz+1
  1324  01CB  084E               	movf	?___fltol,w
  1325  01CC  00DC               	movwf	_Luz
  1326  01CD                     l2140:
  1327                           
  1328                           ;P1 Master.c: 131:         Decimal(Luz);
  1329  01CD  085D               	movf	_Luz+1,w
  1330  01CE  00AF               	movwf	Decimal@variable+1
  1331  01CF  085C               	movf	_Luz,w
  1332  01D0  00AE               	movwf	Decimal@variable
  1333  01D1  120A  118A  25EB  120A  118A  	fcall	_Decimal
  1334  01D6                     l2142:
  1335                           
  1336                           ;P1 Master.c: 132:         LZ[0] = Decena;
  1337  01D6  1283               	bcf	3,5	;RP0=0, select bank0
  1338  01D7  1303               	bcf	3,6	;RP1=0, select bank0
  1339  01D8  085F               	movf	_Decena,w
  1340  01D9  00D9               	movwf	??_main
  1341  01DA  0859               	movf	??_main,w
  1342  01DB  00E3               	movwf	_LZ
  1343  01DC                     l2144:
  1344                           
  1345                           ;P1 Master.c: 133:         LZ[1] = Unidad;
  1346  01DC  0860               	movf	_Unidad,w
  1347  01DD  00D9               	movwf	??_main
  1348  01DE  0859               	movf	??_main,w
  1349  01DF  00E4               	movwf	_LZ+1
  1350  01E0                     l2146:
  1351                           
  1352                           ;P1 Master.c: 134:         Lcd_Write_Char(Decena);
  1353  01E0  085F               	movf	_Decena,w
  1354  01E1  120A  158A  273C  120A  118A  	fcall	_Lcd_Write_Char
  1355  01E6                     l2148:
  1356                           
  1357                           ;P1 Master.c: 135:         Lcd_Write_Char(Unidad);
  1358  01E6  1283               	bcf	3,5	;RP0=0, select bank0
  1359  01E7  1303               	bcf	3,6	;RP1=0, select bank0
  1360  01E8  0860               	movf	_Unidad,w
  1361  01E9  120A  158A  273C  120A  118A  	fcall	_Lcd_Write_Char
  1362  01EE                     l2150:
  1363                           
  1364                           ;P1 Master.c: 136:         Lcd_Write_String("%");
  1365  01EE  3015               	movlw	(low ((STR_4-__stringbase)| (0+32768)))& (0+255)
  1366  01EF  120A  158A  26A7  120A  118A  	fcall	_Lcd_Write_String
  1367  01F4                     l2152:
  1368                           
  1369                           ;P1 Master.c: 137:         Lcd_Write_String(" ");
  1370  01F4  3013               	movlw	(low (((STR_2+1)-__stringbase)| (0+32768)))& (0+255)
  1371  01F5  120A  158A  26A7  120A  118A  	fcall	_Lcd_Write_String
  1372  01FA                     l2154:
  1373                           
  1374                           ;P1 Master.c: 140:         I2C_Master_Start();
  1375  01FA  120A  158A  260C  120A  118A  	fcall	_I2C_Master_Start
  1376  01FF                     l2156:
  1377                           
  1378                           ;P1 Master.c: 141:         I2C_Master_Write(0x81);
  1379  01FF  3081               	movlw	129
  1380  0200  1283               	bcf	3,5	;RP0=0, select bank0
  1381  0201  1303               	bcf	3,6	;RP1=0, select bank0
  1382  0202  00A6               	movwf	I2C_Master_Write@d
  1383  0203  3000               	movlw	0
  1384  0204  00A7               	movwf	I2C_Master_Write@d+1
  1385  0205  120A  118A  27F5  120A  118A  	fcall	_I2C_Master_Write
  1386  020A                     l2158:
  1387                           
  1388                           ;P1 Master.c: 142:         Tnk = I2C_Master_Read(0);
  1389  020A  3000               	movlw	0
  1390  020B  1283               	bcf	3,5	;RP0=0, select bank0
  1391  020C  1303               	bcf	3,6	;RP1=0, select bank0
  1392  020D  00A6               	movwf	I2C_Master_Read@a
  1393  020E  00A7               	movwf	I2C_Master_Read@a+1
  1394  020F  120A  158A  26D0  120A  118A  	fcall	_I2C_Master_Read
  1395  0214  1283               	bcf	3,5	;RP0=0, select bank0
  1396  0215  1303               	bcf	3,6	;RP1=0, select bank0
  1397  0216  0826               	movf	?_I2C_Master_Read,w
  1398  0217  00D9               	movwf	??_main
  1399  0218  0859               	movf	??_main,w
  1400  0219  00E5               	movwf	_Tnk
  1401  021A                     l2160:
  1402                           
  1403                           ;P1 Master.c: 143:         I2C_Master_Stop();
  1404  021A  120A  158A  2615  120A  118A  	fcall	_I2C_Master_Stop
  1405  021F                     l2162:
  1406                           
  1407                           ;P1 Master.c: 144:         _delay((unsigned long)((200)*(8000000/4000.0)));
  1408  021F  3003               	movlw	3
  1409  0220  1283               	bcf	3,5	;RP0=0, select bank0
  1410  0221  1303               	bcf	3,6	;RP1=0, select bank0
  1411  0222  00DB               	movwf	??_main+2
  1412  0223  3008               	movlw	8
  1413  0224  00DA               	movwf	??_main+1
  1414  0225  3076               	movlw	118
  1415  0226  00D9               	movwf	??_main
  1416  0227                     u2047:
  1417  0227  0BD9               	decfsz	??_main,f
  1418  0228  2A27               	goto	u2047
  1419  0229  0BDA               	decfsz	??_main+1,f
  1420  022A  2A27               	goto	u2047
  1421  022B  0BDB               	decfsz	??_main+2,f
  1422  022C  2A27               	goto	u2047
  1423  022D  0000               	nop
  1424  022E                     l2164:
  1425                           
  1426                           ;P1 Master.c: 147:         Decimal(Tnk);
  1427  022E  1283               	bcf	3,5	;RP0=0, select bank0
  1428  022F  1303               	bcf	3,6	;RP1=0, select bank0
  1429  0230  0865               	movf	_Tnk,w
  1430  0231  00D9               	movwf	??_main
  1431  0232  01DA               	clrf	??_main+1
  1432  0233  0859               	movf	??_main,w
  1433  0234  00AE               	movwf	Decimal@variable
  1434  0235  085A               	movf	??_main+1,w
  1435  0236  00AF               	movwf	Decimal@variable+1
  1436  0237  120A  118A  25EB  120A  118A  	fcall	_Decimal
  1437  023C                     l2166:
  1438                           
  1439                           ;P1 Master.c: 148:         Lcd_Write_Char(Centena);
  1440  023C  1283               	bcf	3,5	;RP0=0, select bank0
  1441  023D  1303               	bcf	3,6	;RP1=0, select bank0
  1442  023E  085E               	movf	_Centena,w
  1443  023F  120A  158A  273C  120A  118A  	fcall	_Lcd_Write_Char
  1444  0244                     l2168:
  1445                           
  1446                           ;P1 Master.c: 149:         Lcd_Write_Char(Decena);
  1447  0244  1283               	bcf	3,5	;RP0=0, select bank0
  1448  0245  1303               	bcf	3,6	;RP1=0, select bank0
  1449  0246  085F               	movf	_Decena,w
  1450  0247  120A  158A  273C  120A  118A  	fcall	_Lcd_Write_Char
  1451  024C                     l2170:
  1452                           
  1453                           ;P1 Master.c: 150:         Lcd_Write_Char(Unidad);
  1454  024C  1283               	bcf	3,5	;RP0=0, select bank0
  1455  024D  1303               	bcf	3,6	;RP1=0, select bank0
  1456  024E  0860               	movf	_Unidad,w
  1457  024F  120A  158A  273C  120A  118A  	fcall	_Lcd_Write_Char
  1458  0254  2848               	goto	l2084
  1459  0255  120A  118A  2810   	ljmp	start
  1460  0258                     __end_of_main:
  1461                           
  1462                           	psect	text1
  1463  0F79                     __ptext1:	
  1464 ;; *************** function _setup *****************
  1465 ;; Defined at:
  1466 ;;		line 191 in file "P1 Master.c"
  1467 ;; Parameters:    Size  Location     Type
  1468 ;;		None
  1469 ;; Auto vars:     Size  Location     Type
  1470 ;;		None
  1471 ;; Return value:  Size  Location     Type
  1472 ;;                  1    wreg      void 
  1473 ;; Registers used:
  1474 ;;		wreg, status,2, status,0, pclath, cstack
  1475 ;; Tracked objects:
  1476 ;;		On entry : 0/0
  1477 ;;		On exit  : 0/0
  1478 ;;		Unchanged: 0/0
  1479 ;; Data sizes:     COMMON   BANK0   BANK1   BANK3   BANK2
  1480 ;;      Params:         0       0       0       0       0
  1481 ;;      Locals:         0       0       0       0       0
  1482 ;;      Temps:          0       0       0       0       0
  1483 ;;      Totals:         0       0       0       0       0
  1484 ;;Total ram usage:        0 bytes
  1485 ;; Hardware stack levels used: 1
  1486 ;; Hardware stack levels required when called: 4
  1487 ;; This function calls:
  1488 ;;		_I2C_Master_Init
  1489 ;; This function is called by:
  1490 ;;		_main
  1491 ;; This function uses a non-reentrant model
  1492 ;;
  1493                           
  1494                           
  1495                           ;psect for function _setup
  1496  0F79                     _setup:
  1497  0F79                     l1668:	
  1498                           ;incstack = 0
  1499                           ; Regs used in _setup: [wreg+status,2+status,0+pclath+cstack]
  1500                           
  1501                           
  1502                           ;P1 Master.c: 193:     ANSELH = 0x00;
  1503  0F79  1683               	bsf	3,5	;RP0=1, select bank3
  1504  0F7A  1703               	bsf	3,6	;RP1=1, select bank3
  1505  0F7B  0189               	clrf	9	;volatile
  1506                           
  1507                           ;P1 Master.c: 194:     ANSEL = 0x00;
  1508  0F7C  0188               	clrf	8	;volatile
  1509                           
  1510                           ;P1 Master.c: 196:     TRISA = 0x00;
  1511  0F7D  1683               	bsf	3,5	;RP0=1, select bank1
  1512  0F7E  1303               	bcf	3,6	;RP1=0, select bank1
  1513  0F7F  0185               	clrf	5	;volatile
  1514                           
  1515                           ;P1 Master.c: 197:     TRISB = 0x00;
  1516  0F80  0186               	clrf	6	;volatile
  1517  0F81                     l1670:
  1518                           
  1519                           ;P1 Master.c: 198:     TRISC = 0b10000000;
  1520  0F81  3080               	movlw	128
  1521  0F82  0087               	movwf	7	;volatile
  1522  0F83                     l1672:
  1523                           
  1524                           ;P1 Master.c: 199:     TRISD = 0x00;
  1525  0F83  0188               	clrf	8	;volatile
  1526  0F84                     l1674:
  1527                           
  1528                           ;P1 Master.c: 200:     TRISE = 0x00;
  1529  0F84  0189               	clrf	9	;volatile
  1530  0F85                     l1676:
  1531                           
  1532                           ;P1 Master.c: 202:     PORTA = 0x00;
  1533  0F85  1283               	bcf	3,5	;RP0=0, select bank0
  1534  0F86  1303               	bcf	3,6	;RP1=0, select bank0
  1535  0F87  0185               	clrf	5	;volatile
  1536  0F88                     l1678:
  1537                           
  1538                           ;P1 Master.c: 203:     PORTB = 0x00;
  1539  0F88  0186               	clrf	6	;volatile
  1540  0F89                     l1680:
  1541                           
  1542                           ;P1 Master.c: 204:     PORTC = 0x00;
  1543  0F89  0187               	clrf	7	;volatile
  1544  0F8A                     l1682:
  1545                           
  1546                           ;P1 Master.c: 205:     PORTD = 0x00;
  1547  0F8A  0188               	clrf	8	;volatile
  1548  0F8B                     l1684:
  1549                           
  1550                           ;P1 Master.c: 206:     PORTE = 0x00;
  1551  0F8B  0189               	clrf	9	;volatile
  1552  0F8C                     l1686:
  1553                           
  1554                           ;P1 Master.c: 209:     OSCCONbits.IRCF = 0b111;
  1555  0F8C  3070               	movlw	112
  1556  0F8D  1683               	bsf	3,5	;RP0=1, select bank1
  1557  0F8E  1303               	bcf	3,6	;RP1=0, select bank1
  1558  0F8F  048F               	iorwf	15,f	;volatile
  1559  0F90                     l1688:
  1560                           
  1561                           ;P1 Master.c: 210:     OSCCONbits.SCS = 1;
  1562  0F90  140F               	bsf	15,0	;volatile
  1563  0F91                     l1690:
  1564                           
  1565                           ;P1 Master.c: 211:     I2C_Master_Init(100000);
  1566  0F91  3000               	movlw	0
  1567  0F92  1283               	bcf	3,5	;RP0=0, select bank0
  1568  0F93  1303               	bcf	3,6	;RP1=0, select bank0
  1569  0F94  00B7               	movwf	I2C_Master_Init@c+3
  1570  0F95  3001               	movlw	1
  1571  0F96  00B6               	movwf	I2C_Master_Init@c+2
  1572  0F97  3086               	movlw	134
  1573  0F98  00B5               	movwf	I2C_Master_Init@c+1
  1574  0F99  30A0               	movlw	160
  1575  0F9A  00B4               	movwf	I2C_Master_Init@c
  1576  0F9B  120A  158A  2702  120A  158A  	fcall	_I2C_Master_Init
  1577  0FA0                     l1692:
  1578                           
  1579                           ;P1 Master.c: 214:     TXSTAbits.TX9 = 0;
  1580  0FA0  1683               	bsf	3,5	;RP0=1, select bank1
  1581  0FA1  1303               	bcf	3,6	;RP1=0, select bank1
  1582  0FA2  1318               	bcf	24,6	;volatile
  1583  0FA3                     l1694:
  1584                           
  1585                           ;P1 Master.c: 215:     TXSTAbits.TXEN = 1;
  1586  0FA3  1698               	bsf	24,5	;volatile
  1587  0FA4                     l1696:
  1588                           
  1589                           ;P1 Master.c: 216:     TXSTAbits.SYNC = 0;
  1590  0FA4  1218               	bcf	24,4	;volatile
  1591  0FA5                     l1698:
  1592                           
  1593                           ;P1 Master.c: 217:     TXSTAbits.BRGH = 1;
  1594  0FA5  1518               	bsf	24,2	;volatile
  1595  0FA6                     l1700:
  1596                           
  1597                           ;P1 Master.c: 219:     RCSTAbits.SPEN = 1;
  1598  0FA6  1283               	bcf	3,5	;RP0=0, select bank0
  1599  0FA7  1303               	bcf	3,6	;RP1=0, select bank0
  1600  0FA8  1798               	bsf	24,7	;volatile
  1601  0FA9                     l1702:
  1602                           
  1603                           ;P1 Master.c: 220:     RCSTAbits.RX9 = 0;
  1604  0FA9  1318               	bcf	24,6	;volatile
  1605  0FAA                     l1704:
  1606                           
  1607                           ;P1 Master.c: 221:     RCSTAbits.CREN = 1;
  1608  0FAA  1618               	bsf	24,4	;volatile
  1609  0FAB                     l1706:
  1610                           
  1611                           ;P1 Master.c: 223:     BAUDCTLbits.BRG16 = 1;
  1612  0FAB  1683               	bsf	3,5	;RP0=1, select bank3
  1613  0FAC  1703               	bsf	3,6	;RP1=1, select bank3
  1614  0FAD  1587               	bsf	7,3	;volatile
  1615  0FAE                     l1708:
  1616                           
  1617                           ;P1 Master.c: 225:     SPBRG = 207;
  1618  0FAE  30CF               	movlw	207
  1619  0FAF  1683               	bsf	3,5	;RP0=1, select bank1
  1620  0FB0  1303               	bcf	3,6	;RP1=0, select bank1
  1621  0FB1  0099               	movwf	25	;volatile
  1622  0FB2                     l1710:
  1623                           
  1624                           ;P1 Master.c: 226:     SPBRGH = 0;
  1625  0FB2  019A               	clrf	26	;volatile
  1626  0FB3                     l1712:
  1627                           
  1628                           ;P1 Master.c: 229:     INTCONbits.GIE = 1;
  1629  0FB3  178B               	bsf	11,7	;volatile
  1630  0FB4                     l1714:
  1631                           
  1632                           ;P1 Master.c: 230:     INTCONbits.PEIE = 1;
  1633  0FB4  170B               	bsf	11,6	;volatile
  1634  0FB5                     l1716:
  1635                           
  1636                           ;P1 Master.c: 231:     PIE1bits.RCIE = 1;
  1637  0FB5  168C               	bsf	12,5	;volatile
  1638  0FB6                     l1718:
  1639                           
  1640                           ;P1 Master.c: 232:     PIR1bits.RCIF = 0;
  1641  0FB6  1283               	bcf	3,5	;RP0=0, select bank0
  1642  0FB7  1303               	bcf	3,6	;RP1=0, select bank0
  1643  0FB8  128C               	bcf	12,5	;volatile
  1644  0FB9                     l127:
  1645  0FB9  0008               	return
  1646  0FBA                     __end_of_setup:
  1647                           
  1648                           	psect	text2
  1649  0F02                     __ptext2:	
  1650 ;; *************** function _I2C_Master_Init *****************
  1651 ;; Defined at:
  1652 ;;		line 18 in file "I2C.c"
  1653 ;; Parameters:    Size  Location     Type
  1654 ;;  c               4   20[BANK0 ] const unsigned long 
  1655 ;; Auto vars:     Size  Location     Type
  1656 ;;		None
  1657 ;; Return value:  Size  Location     Type
  1658 ;;                  1    wreg      void 
  1659 ;; Registers used:
  1660 ;;		wreg, status,2, status,0, pclath, cstack
  1661 ;; Tracked objects:
  1662 ;;		On entry : 0/0
  1663 ;;		On exit  : 0/0
  1664 ;;		Unchanged: 0/0
  1665 ;; Data sizes:     COMMON   BANK0   BANK1   BANK3   BANK2
  1666 ;;      Params:         0       4       0       0       0
  1667 ;;      Locals:         0       0       0       0       0
  1668 ;;      Temps:          0       4       0       0       0
  1669 ;;      Totals:         0       8       0       0       0
  1670 ;;Total ram usage:        8 bytes
  1671 ;; Hardware stack levels used: 1
  1672 ;; Hardware stack levels required when called: 3
  1673 ;; This function calls:
  1674 ;;		___lldiv
  1675 ;; This function is called by:
  1676 ;;		_setup
  1677 ;; This function uses a non-reentrant model
  1678 ;;
  1679                           
  1680                           
  1681                           ;psect for function _I2C_Master_Init
  1682  0F02                     _I2C_Master_Init:
  1683  0F02                     l1602:	
  1684                           ;incstack = 0
  1685                           ; Regs used in _I2C_Master_Init: [wreg+status,2+status,0+pclath+cstack]
  1686                           
  1687                           
  1688                           ;I2C.c: 18: void I2C_Master_Init(const unsigned long c);I2C.c: 19: {;I2C.c: 20:     SSPC
      +                          ON = 0b00101000;
  1689  0F02  3028               	movlw	40
  1690  0F03  1283               	bcf	3,5	;RP0=0, select bank0
  1691  0F04  1303               	bcf	3,6	;RP1=0, select bank0
  1692  0F05  0094               	movwf	20	;volatile
  1693  0F06                     l1604:
  1694                           
  1695                           ;I2C.c: 21:     SSPCON2 = 0;
  1696  0F06  1683               	bsf	3,5	;RP0=1, select bank1
  1697  0F07  1303               	bcf	3,6	;RP1=0, select bank1
  1698  0F08  0191               	clrf	17	;volatile
  1699  0F09                     l1606:
  1700                           
  1701                           ;I2C.c: 22:     SSPADD = (8000000/(4*c))-1;
  1702  0F09  1283               	bcf	3,5	;RP0=0, select bank0
  1703  0F0A  1303               	bcf	3,6	;RP1=0, select bank0
  1704  0F0B  0834               	movf	I2C_Master_Init@c,w
  1705  0F0C  00B8               	movwf	??_I2C_Master_Init
  1706  0F0D  0835               	movf	I2C_Master_Init@c+1,w
  1707  0F0E  00B9               	movwf	??_I2C_Master_Init+1
  1708  0F0F  0836               	movf	I2C_Master_Init@c+2,w
  1709  0F10  00BA               	movwf	??_I2C_Master_Init+2
  1710  0F11  0837               	movf	I2C_Master_Init@c+3,w
  1711  0F12  00BB               	movwf	??_I2C_Master_Init+3
  1712  0F13  3002               	movlw	2
  1713  0F14                     u1125:
  1714  0F14  1003               	clrc
  1715  0F15  0DB8               	rlf	??_I2C_Master_Init,f
  1716  0F16  0DB9               	rlf	??_I2C_Master_Init+1,f
  1717  0F17  0DBA               	rlf	??_I2C_Master_Init+2,f
  1718  0F18  0DBB               	rlf	??_I2C_Master_Init+3,f
  1719  0F19                     u1120:
  1720  0F19  3EFF               	addlw	-1
  1721  0F1A  1D03               	skipz
  1722  0F1B  2F14               	goto	u1125
  1723  0F1C  083B               	movf	??_I2C_Master_Init+3,w
  1724  0F1D  00A9               	movwf	___lldiv@divisor+3
  1725  0F1E  083A               	movf	??_I2C_Master_Init+2,w
  1726  0F1F  00A8               	movwf	___lldiv@divisor+2
  1727  0F20  0839               	movf	??_I2C_Master_Init+1,w
  1728  0F21  00A7               	movwf	___lldiv@divisor+1
  1729  0F22  0838               	movf	??_I2C_Master_Init,w
  1730  0F23  00A6               	movwf	___lldiv@divisor
  1731  0F24  3000               	movlw	0
  1732  0F25  00AD               	movwf	___lldiv@dividend+3
  1733  0F26  307A               	movlw	122
  1734  0F27  00AC               	movwf	___lldiv@dividend+2
  1735  0F28  3012               	movlw	18
  1736  0F29  00AB               	movwf	___lldiv@dividend+1
  1737  0F2A  3000               	movlw	0
  1738  0F2B  00AA               	movwf	___lldiv@dividend
  1739  0F2C  120A  118A  265F  120A  158A  	fcall	___lldiv
  1740  0F31  1283               	bcf	3,5	;RP0=0, select bank0
  1741  0F32  1303               	bcf	3,6	;RP1=0, select bank0
  1742  0F33  0826               	movf	?___lldiv,w
  1743  0F34  3EFF               	addlw	255
  1744  0F35  1683               	bsf	3,5	;RP0=1, select bank1
  1745  0F36  1303               	bcf	3,6	;RP1=0, select bank1
  1746  0F37  0093               	movwf	19	;volatile
  1747  0F38                     l1608:
  1748                           
  1749                           ;I2C.c: 23:     SSPSTAT = 0;
  1750  0F38  0194               	clrf	20	;volatile
  1751  0F39                     l1610:
  1752                           
  1753                           ;I2C.c: 24:     TRISCbits.TRISC3 = 1;
  1754  0F39  1587               	bsf	7,3	;volatile
  1755  0F3A                     l1612:
  1756                           
  1757                           ;I2C.c: 25:     TRISCbits.TRISC4 = 1;
  1758  0F3A  1607               	bsf	7,4	;volatile
  1759  0F3B                     l214:
  1760  0F3B  0008               	return
  1761  0F3C                     __end_of_I2C_Master_Init:
  1762                           
  1763                           	psect	text3
  1764  065F                     __ptext3:	
  1765 ;; *************** function ___lldiv *****************
  1766 ;; Defined at:
  1767 ;;		line 5 in file "C:\Program Files\Microchip\xc8\v2.32\pic\sources\c90\common\__lldiv.c"
  1768 ;; Parameters:    Size  Location     Type
  1769 ;;  divisor         4    6[BANK0 ] unsigned long 
  1770 ;;  dividend        4   10[BANK0 ] unsigned long 
  1771 ;; Auto vars:     Size  Location     Type
  1772 ;;  quotient        4   15[BANK0 ] unsigned long 
  1773 ;;  counter         1   19[BANK0 ] unsigned char 
  1774 ;; Return value:  Size  Location     Type
  1775 ;;                  4    6[BANK0 ] unsigned long 
  1776 ;; Registers used:
  1777 ;;		wreg, status,2, status,0
  1778 ;; Tracked objects:
  1779 ;;		On entry : 0/0
  1780 ;;		On exit  : 0/0
  1781 ;;		Unchanged: 0/0
  1782 ;; Data sizes:     COMMON   BANK0   BANK1   BANK3   BANK2
  1783 ;;      Params:         0       8       0       0       0
  1784 ;;      Locals:         0       5       0       0       0
  1785 ;;      Temps:          0       1       0       0       0
  1786 ;;      Totals:         0      14       0       0       0
  1787 ;;Total ram usage:       14 bytes
  1788 ;; Hardware stack levels used: 1
  1789 ;; Hardware stack levels required when called: 2
  1790 ;; This function calls:
  1791 ;;		Nothing
  1792 ;; This function is called by:
  1793 ;;		_I2C_Master_Init
  1794 ;; This function uses a non-reentrant model
  1795 ;;
  1796                           
  1797                           
  1798                           ;psect for function ___lldiv
  1799  065F                     ___lldiv:
  1800  065F                     l1558:	
  1801                           ;incstack = 0
  1802                           ; Regs used in ___lldiv: [wreg+status,2+status,0]
  1803                           
  1804  065F  3000               	movlw	0
  1805  0660  1283               	bcf	3,5	;RP0=0, select bank0
  1806  0661  1303               	bcf	3,6	;RP1=0, select bank0
  1807  0662  00B2               	movwf	___lldiv@quotient+3
  1808  0663  3000               	movlw	0
  1809  0664  00B1               	movwf	___lldiv@quotient+2
  1810  0665  3000               	movlw	0
  1811  0666  00B0               	movwf	___lldiv@quotient+1
  1812  0667  3000               	movlw	0
  1813  0668  00AF               	movwf	___lldiv@quotient
  1814  0669  0829               	movf	___lldiv@divisor+3,w
  1815  066A  0428               	iorwf	___lldiv@divisor+2,w
  1816  066B  0427               	iorwf	___lldiv@divisor+1,w
  1817  066C  0426               	iorwf	___lldiv@divisor,w
  1818  066D  1903               	skipnz
  1819  066E  2E70               	goto	u1041
  1820  066F  2E71               	goto	u1040
  1821  0670                     u1041:
  1822  0670  2EBE               	goto	l1578
  1823  0671                     u1040:
  1824  0671                     l1560:
  1825  0671  01B3               	clrf	___lldiv@counter
  1826  0672  0AB3               	incf	___lldiv@counter,f
  1827  0673  2E81               	goto	l1564
  1828  0674                     l1562:
  1829  0674  3001               	movlw	1
  1830  0675  00AE               	movwf	??___lldiv
  1831  0676                     u1055:
  1832  0676  1003               	clrc
  1833  0677  0DA6               	rlf	___lldiv@divisor,f
  1834  0678  0DA7               	rlf	___lldiv@divisor+1,f
  1835  0679  0DA8               	rlf	___lldiv@divisor+2,f
  1836  067A  0DA9               	rlf	___lldiv@divisor+3,f
  1837  067B  0BAE               	decfsz	??___lldiv,f
  1838  067C  2E76               	goto	u1055
  1839  067D  3001               	movlw	1
  1840  067E  00AE               	movwf	??___lldiv
  1841  067F  082E               	movf	??___lldiv,w
  1842  0680  07B3               	addwf	___lldiv@counter,f
  1843  0681                     l1564:
  1844  0681  1FA9               	btfss	___lldiv@divisor+3,7
  1845  0682  2E84               	goto	u1061
  1846  0683  2E85               	goto	u1060
  1847  0684                     u1061:
  1848  0684  2E74               	goto	l1562
  1849  0685                     u1060:
  1850  0685                     l1566:
  1851  0685  3001               	movlw	1
  1852  0686  00AE               	movwf	??___lldiv
  1853  0687                     u1075:
  1854  0687  1003               	clrc
  1855  0688  0DAF               	rlf	___lldiv@quotient,f
  1856  0689  0DB0               	rlf	___lldiv@quotient+1,f
  1857  068A  0DB1               	rlf	___lldiv@quotient+2,f
  1858  068B  0DB2               	rlf	___lldiv@quotient+3,f
  1859  068C  0BAE               	decfsz	??___lldiv,f
  1860  068D  2E87               	goto	u1075
  1861  068E                     l1568:
  1862  068E  0829               	movf	___lldiv@divisor+3,w
  1863  068F  022D               	subwf	___lldiv@dividend+3,w
  1864  0690  1D03               	skipz
  1865  0691  2E9C               	goto	u1085
  1866  0692  0828               	movf	___lldiv@divisor+2,w
  1867  0693  022C               	subwf	___lldiv@dividend+2,w
  1868  0694  1D03               	skipz
  1869  0695  2E9C               	goto	u1085
  1870  0696  0827               	movf	___lldiv@divisor+1,w
  1871  0697  022B               	subwf	___lldiv@dividend+1,w
  1872  0698  1D03               	skipz
  1873  0699  2E9C               	goto	u1085
  1874  069A  0826               	movf	___lldiv@divisor,w
  1875  069B  022A               	subwf	___lldiv@dividend,w
  1876  069C                     u1085:
  1877  069C  1C03               	skipc
  1878  069D  2E9F               	goto	u1081
  1879  069E  2EA0               	goto	u1080
  1880  069F                     u1081:
  1881  069F  2EAF               	goto	l1574
  1882  06A0                     u1080:
  1883  06A0                     l1570:
  1884  06A0  0826               	movf	___lldiv@divisor,w
  1885  06A1  02AA               	subwf	___lldiv@dividend,f
  1886  06A2  0827               	movf	___lldiv@divisor+1,w
  1887  06A3  1C03               	skipc
  1888  06A4  0F27               	incfsz	___lldiv@divisor+1,w
  1889  06A5  02AB               	subwf	___lldiv@dividend+1,f
  1890  06A6  0828               	movf	___lldiv@divisor+2,w
  1891  06A7  1C03               	skipc
  1892  06A8  0F28               	incfsz	___lldiv@divisor+2,w
  1893  06A9  02AC               	subwf	___lldiv@dividend+2,f
  1894  06AA  0829               	movf	___lldiv@divisor+3,w
  1895  06AB  1C03               	skipc
  1896  06AC  0F29               	incfsz	___lldiv@divisor+3,w
  1897  06AD  02AD               	subwf	___lldiv@dividend+3,f
  1898  06AE                     l1572:
  1899  06AE  142F               	bsf	___lldiv@quotient,0
  1900  06AF                     l1574:
  1901  06AF  3001               	movlw	1
  1902  06B0                     u1095:
  1903  06B0  1003               	clrc
  1904  06B1  0CA9               	rrf	___lldiv@divisor+3,f
  1905  06B2  0CA8               	rrf	___lldiv@divisor+2,f
  1906  06B3  0CA7               	rrf	___lldiv@divisor+1,f
  1907  06B4  0CA6               	rrf	___lldiv@divisor,f
  1908  06B5  3EFF               	addlw	-1
  1909  06B6  1D03               	skipz
  1910  06B7  2EB0               	goto	u1095
  1911  06B8                     l1576:
  1912  06B8  3001               	movlw	1
  1913  06B9  02B3               	subwf	___lldiv@counter,f
  1914  06BA  1D03               	btfss	3,2
  1915  06BB  2EBD               	goto	u1101
  1916  06BC  2EBE               	goto	u1100
  1917  06BD                     u1101:
  1918  06BD  2E85               	goto	l1566
  1919  06BE                     u1100:
  1920  06BE                     l1578:
  1921  06BE  0832               	movf	___lldiv@quotient+3,w
  1922  06BF  00A9               	movwf	?___lldiv+3
  1923  06C0  0831               	movf	___lldiv@quotient+2,w
  1924  06C1  00A8               	movwf	?___lldiv+2
  1925  06C2  0830               	movf	___lldiv@quotient+1,w
  1926  06C3  00A7               	movwf	?___lldiv+1
  1927  06C4  082F               	movf	___lldiv@quotient,w
  1928  06C5  00A6               	movwf	?___lldiv
  1929  06C6                     l362:
  1930  06C6  0008               	return
  1931  06C7                     __end_of___lldiv:
  1932                           
  1933                           	psect	text4
  1934  0435                     __ptext4:	
  1935 ;; *************** function ___xxtofl *****************
  1936 ;; Defined at:
  1937 ;;		line 10 in file "C:\Program Files\Microchip\xc8\v2.32\pic\sources\c90\common\xxtofl.c"
  1938 ;; Parameters:    Size  Location     Type
  1939 ;;  sign            1    wreg     unsigned char 
  1940 ;;  val             4    6[BANK0 ] long 
  1941 ;; Auto vars:     Size  Location     Type
  1942 ;;  sign            1   14[BANK0 ] unsigned char 
  1943 ;;  arg             4   16[BANK0 ] unsigned long 
  1944 ;;  exp             1   15[BANK0 ] unsigned char 
  1945 ;; Return value:  Size  Location     Type
  1946 ;;                  4    6[BANK0 ] unsigned char 
  1947 ;; Registers used:
  1948 ;;		wreg, status,2, status,0
  1949 ;; Tracked objects:
  1950 ;;		On entry : 0/0
  1951 ;;		On exit  : 0/0
  1952 ;;		Unchanged: 0/0
  1953 ;; Data sizes:     COMMON   BANK0   BANK1   BANK3   BANK2
  1954 ;;      Params:         0       4       0       0       0
  1955 ;;      Locals:         0       6       0       0       0
  1956 ;;      Temps:          0       4       0       0       0
  1957 ;;      Totals:         0      14       0       0       0
  1958 ;;Total ram usage:       14 bytes
  1959 ;; Hardware stack levels used: 1
  1960 ;; Hardware stack levels required when called: 2
  1961 ;; This function calls:
  1962 ;;		Nothing
  1963 ;; This function is called by:
  1964 ;;		_main
  1965 ;; This function uses a non-reentrant model
  1966 ;;
  1967                           
  1968                           
  1969                           ;psect for function ___xxtofl
  1970  0435                     ___xxtofl:
  1971                           
  1972                           ;incstack = 0
  1973                           ; Regs used in ___xxtofl: [wreg+status,2+status,0]
  1974                           ;___xxtofl@sign stored from wreg
  1975  0435  1283               	bcf	3,5	;RP0=0, select bank0
  1976  0436  1303               	bcf	3,6	;RP1=0, select bank0
  1977  0437  00AE               	movwf	___xxtofl@sign
  1978  0438                     l2036:
  1979  0438  082E               	movf	___xxtofl@sign,w
  1980  0439  1903               	btfsc	3,2
  1981  043A  2C3C               	goto	u1821
  1982  043B  2C3D               	goto	u1820
  1983  043C                     u1821:
  1984  043C  2C51               	goto	l2042
  1985  043D                     u1820:
  1986  043D                     l2038:
  1987  043D  1FA9               	btfss	___xxtofl@val+3,7
  1988  043E  2C40               	goto	u1831
  1989  043F  2C41               	goto	u1830
  1990  0440                     u1831:
  1991  0440  2C51               	goto	l2042
  1992  0441                     u1830:
  1993  0441                     l2040:
  1994  0441  0926               	comf	___xxtofl@val,w
  1995  0442  00B0               	movwf	___xxtofl@arg
  1996  0443  0927               	comf	___xxtofl@val+1,w
  1997  0444  00B1               	movwf	___xxtofl@arg+1
  1998  0445  0928               	comf	___xxtofl@val+2,w
  1999  0446  00B2               	movwf	___xxtofl@arg+2
  2000  0447  0929               	comf	___xxtofl@val+3,w
  2001  0448  00B3               	movwf	___xxtofl@arg+3
  2002  0449  0AB0               	incf	___xxtofl@arg,f
  2003  044A  1903               	skipnz
  2004  044B  0AB1               	incf	___xxtofl@arg+1,f
  2005  044C  1903               	skipnz
  2006  044D  0AB2               	incf	___xxtofl@arg+2,f
  2007  044E  1903               	skipnz
  2008  044F  0AB3               	incf	___xxtofl@arg+3,f
  2009  0450  2C59               	goto	l759
  2010  0451                     l2042:
  2011  0451  0829               	movf	___xxtofl@val+3,w
  2012  0452  00B3               	movwf	___xxtofl@arg+3
  2013  0453  0828               	movf	___xxtofl@val+2,w
  2014  0454  00B2               	movwf	___xxtofl@arg+2
  2015  0455  0827               	movf	___xxtofl@val+1,w
  2016  0456  00B1               	movwf	___xxtofl@arg+1
  2017  0457  0826               	movf	___xxtofl@val,w
  2018  0458  00B0               	movwf	___xxtofl@arg
  2019  0459                     l759:
  2020  0459  0829               	movf	___xxtofl@val+3,w
  2021  045A  0428               	iorwf	___xxtofl@val+2,w
  2022  045B  0427               	iorwf	___xxtofl@val+1,w
  2023  045C  0426               	iorwf	___xxtofl@val,w
  2024  045D  1D03               	skipz
  2025  045E  2C60               	goto	u1841
  2026  045F  2C61               	goto	u1840
  2027  0460                     u1841:
  2028  0460  2C6A               	goto	l2048
  2029  0461                     u1840:
  2030  0461                     l2044:
  2031  0461  3000               	movlw	0
  2032  0462  00A9               	movwf	?___xxtofl+3
  2033  0463  3000               	movlw	0
  2034  0464  00A8               	movwf	?___xxtofl+2
  2035  0465  3000               	movlw	0
  2036  0466  00A7               	movwf	?___xxtofl+1
  2037  0467  3000               	movlw	0
  2038  0468  00A6               	movwf	?___xxtofl
  2039  0469  2CF0               	goto	l761
  2040  046A                     l2048:
  2041  046A  3096               	movlw	150
  2042  046B  00AA               	movwf	??___xxtofl
  2043  046C  082A               	movf	??___xxtofl,w
  2044  046D  00AF               	movwf	___xxtofl@exp
  2045  046E  2C7C               	goto	l2052
  2046  046F                     l2050:
  2047  046F  3001               	movlw	1
  2048  0470  00AA               	movwf	??___xxtofl
  2049  0471  082A               	movf	??___xxtofl,w
  2050  0472  07AF               	addwf	___xxtofl@exp,f
  2051  0473  3001               	movlw	1
  2052  0474                     u1855:
  2053  0474  1003               	clrc
  2054  0475  0CB3               	rrf	___xxtofl@arg+3,f
  2055  0476  0CB2               	rrf	___xxtofl@arg+2,f
  2056  0477  0CB1               	rrf	___xxtofl@arg+1,f
  2057  0478  0CB0               	rrf	___xxtofl@arg,f
  2058  0479  3EFF               	addlw	-1
  2059  047A  1D03               	skipz
  2060  047B  2C74               	goto	u1855
  2061  047C                     l2052:
  2062  047C  30FE               	movlw	254
  2063  047D  0533               	andwf	___xxtofl@arg+3,w
  2064  047E  1D03               	btfss	3,2
  2065  047F  2C81               	goto	u1861
  2066  0480  2C82               	goto	u1860
  2067  0481                     u1861:
  2068  0481  2C6F               	goto	l2050
  2069  0482                     u1860:
  2070  0482  2C9E               	goto	l765
  2071  0483                     l2054:
  2072  0483  3001               	movlw	1
  2073  0484  00AA               	movwf	??___xxtofl
  2074  0485  082A               	movf	??___xxtofl,w
  2075  0486  07AF               	addwf	___xxtofl@exp,f
  2076  0487                     l2056:
  2077  0487  3001               	movlw	1
  2078  0488  07B0               	addwf	___xxtofl@arg,f
  2079  0489  3000               	movlw	0
  2080  048A  1803               	skipnc
  2081  048B  3001               	movlw	1
  2082  048C  07B1               	addwf	___xxtofl@arg+1,f
  2083  048D  3000               	movlw	0
  2084  048E  1803               	skipnc
  2085  048F  3001               	movlw	1
  2086  0490  07B2               	addwf	___xxtofl@arg+2,f
  2087  0491  3000               	movlw	0
  2088  0492  1803               	skipnc
  2089  0493  3001               	movlw	1
  2090  0494  07B3               	addwf	___xxtofl@arg+3,f
  2091  0495                     l2058:
  2092  0495  3001               	movlw	1
  2093  0496                     u1875:
  2094  0496  1003               	clrc
  2095  0497  0CB3               	rrf	___xxtofl@arg+3,f
  2096  0498  0CB2               	rrf	___xxtofl@arg+2,f
  2097  0499  0CB1               	rrf	___xxtofl@arg+1,f
  2098  049A  0CB0               	rrf	___xxtofl@arg,f
  2099  049B  3EFF               	addlw	-1
  2100  049C  1D03               	skipz
  2101  049D  2C96               	goto	u1875
  2102  049E                     l765:
  2103  049E  30FF               	movlw	255
  2104  049F  0533               	andwf	___xxtofl@arg+3,w
  2105  04A0  1D03               	btfss	3,2
  2106  04A1  2CA3               	goto	u1881
  2107  04A2  2CA4               	goto	u1880
  2108  04A3                     u1881:
  2109  04A3  2C83               	goto	l2054
  2110  04A4                     u1880:
  2111  04A4  2CB0               	goto	l2062
  2112  04A5                     l2060:
  2113  04A5  3001               	movlw	1
  2114  04A6  02AF               	subwf	___xxtofl@exp,f
  2115  04A7  3001               	movlw	1
  2116  04A8  00AA               	movwf	??___xxtofl
  2117  04A9                     u1895:
  2118  04A9  1003               	clrc
  2119  04AA  0DB0               	rlf	___xxtofl@arg,f
  2120  04AB  0DB1               	rlf	___xxtofl@arg+1,f
  2121  04AC  0DB2               	rlf	___xxtofl@arg+2,f
  2122  04AD  0DB3               	rlf	___xxtofl@arg+3,f
  2123  04AE  0BAA               	decfsz	??___xxtofl,f
  2124  04AF  2CA9               	goto	u1895
  2125  04B0                     l2062:
  2126  04B0  1BB2               	btfsc	___xxtofl@arg+2,7
  2127  04B1  2CB3               	goto	u1901
  2128  04B2  2CB4               	goto	u1900
  2129  04B3                     u1901:
  2130  04B3  2CBA               	goto	l772
  2131  04B4                     u1900:
  2132  04B4                     l2064:
  2133  04B4  3002               	movlw	2
  2134  04B5  022F               	subwf	___xxtofl@exp,w
  2135  04B6  1803               	skipnc
  2136  04B7  2CB9               	goto	u1911
  2137  04B8  2CBA               	goto	u1910
  2138  04B9                     u1911:
  2139  04B9  2CA5               	goto	l2060
  2140  04BA                     u1910:
  2141  04BA                     l772:
  2142  04BA  182F               	btfsc	___xxtofl@exp,0
  2143  04BB  2CBD               	goto	u1921
  2144  04BC  2CBE               	goto	u1920
  2145  04BD                     u1921:
  2146  04BD  2CC6               	goto	l773
  2147  04BE                     u1920:
  2148  04BE                     l2066:
  2149  04BE  30FF               	movlw	255
  2150  04BF  05B0               	andwf	___xxtofl@arg,f
  2151  04C0  30FF               	movlw	255
  2152  04C1  05B1               	andwf	___xxtofl@arg+1,f
  2153  04C2  307F               	movlw	127
  2154  04C3  05B2               	andwf	___xxtofl@arg+2,f
  2155  04C4  30FF               	movlw	255
  2156  04C5  05B3               	andwf	___xxtofl@arg+3,f
  2157  04C6                     l773:
  2158  04C6  1003               	clrc
  2159  04C7  0CAF               	rrf	___xxtofl@exp,f
  2160  04C8                     l2068:
  2161  04C8  082F               	movf	___xxtofl@exp,w
  2162  04C9  00AA               	movwf	??___xxtofl
  2163  04CA  01AB               	clrf	??___xxtofl+1
  2164  04CB  01AC               	clrf	??___xxtofl+2
  2165  04CC  01AD               	clrf	??___xxtofl+3
  2166  04CD  3018               	movlw	24
  2167  04CE                     u1935:
  2168  04CE  1003               	clrc
  2169  04CF  0DAA               	rlf	??___xxtofl,f
  2170  04D0  0DAB               	rlf	??___xxtofl+1,f
  2171  04D1  0DAC               	rlf	??___xxtofl+2,f
  2172  04D2  0DAD               	rlf	??___xxtofl+3,f
  2173  04D3                     u1930:
  2174  04D3  3EFF               	addlw	-1
  2175  04D4  1D03               	skipz
  2176  04D5  2CCE               	goto	u1935
  2177  04D6  082A               	movf	??___xxtofl,w
  2178  04D7  04B0               	iorwf	___xxtofl@arg,f
  2179  04D8  082B               	movf	??___xxtofl+1,w
  2180  04D9  04B1               	iorwf	___xxtofl@arg+1,f
  2181  04DA  082C               	movf	??___xxtofl+2,w
  2182  04DB  04B2               	iorwf	___xxtofl@arg+2,f
  2183  04DC  082D               	movf	??___xxtofl+3,w
  2184  04DD  04B3               	iorwf	___xxtofl@arg+3,f
  2185  04DE                     l2070:
  2186  04DE  082E               	movf	___xxtofl@sign,w
  2187  04DF  1903               	btfsc	3,2
  2188  04E0  2CE2               	goto	u1941
  2189  04E1  2CE3               	goto	u1940
  2190  04E2                     u1941:
  2191  04E2  2CE8               	goto	l2076
  2192  04E3                     u1940:
  2193  04E3                     l2072:
  2194  04E3  1FA9               	btfss	___xxtofl@val+3,7
  2195  04E4  2CE6               	goto	u1951
  2196  04E5  2CE7               	goto	u1950
  2197  04E6                     u1951:
  2198  04E6  2CE8               	goto	l2076
  2199  04E7                     u1950:
  2200  04E7                     l2074:
  2201  04E7  17B3               	bsf	___xxtofl@arg+3,7
  2202  04E8                     l2076:
  2203  04E8  0833               	movf	___xxtofl@arg+3,w
  2204  04E9  00A9               	movwf	?___xxtofl+3
  2205  04EA  0832               	movf	___xxtofl@arg+2,w
  2206  04EB  00A8               	movwf	?___xxtofl+2
  2207  04EC  0831               	movf	___xxtofl@arg+1,w
  2208  04ED  00A7               	movwf	?___xxtofl+1
  2209  04EE  0830               	movf	___xxtofl@arg,w
  2210  04EF  00A6               	movwf	?___xxtofl
  2211  04F0                     l761:
  2212  04F0  0008               	return
  2213  04F1                     __end_of___xxtofl:
  2214                           
  2215                           	psect	text5
  2216  056F                     __ptext5:	
  2217 ;; *************** function ___fltol *****************
  2218 ;; Defined at:
  2219 ;;		line 43 in file "C:\Program Files\Microchip\xc8\v2.32\pic\sources\c90\common\fltol.c"
  2220 ;; Parameters:    Size  Location     Type
  2221 ;;  f1              4   46[BANK0 ] unsigned char 
  2222 ;; Auto vars:     Size  Location     Type
  2223 ;;  exp1            1   56[BANK0 ] unsigned char 
  2224 ;;  sign1           1   55[BANK0 ] unsigned char 
  2225 ;; Return value:  Size  Location     Type
  2226 ;;                  4   46[BANK0 ] long 
  2227 ;; Registers used:
  2228 ;;		wreg, status,2, status,0
  2229 ;; Tracked objects:
  2230 ;;		On entry : 0/0
  2231 ;;		On exit  : 0/0
  2232 ;;		Unchanged: 0/0
  2233 ;; Data sizes:     COMMON   BANK0   BANK1   BANK3   BANK2
  2234 ;;      Params:         0       4       0       0       0
  2235 ;;      Locals:         0       2       0       0       0
  2236 ;;      Temps:          0       5       0       0       0
  2237 ;;      Totals:         0      11       0       0       0
  2238 ;;Total ram usage:       11 bytes
  2239 ;; Hardware stack levels used: 1
  2240 ;; Hardware stack levels required when called: 2
  2241 ;; This function calls:
  2242 ;;		Nothing
  2243 ;; This function is called by:
  2244 ;;		_main
  2245 ;; This function uses a non-reentrant model
  2246 ;;
  2247                           
  2248                           
  2249                           ;psect for function ___fltol
  2250  056F                     ___fltol:
  2251  056F                     l1858:	
  2252                           ;incstack = 0
  2253                           ; Regs used in ___fltol: [wreg+status,2+status,0]
  2254                           
  2255  056F  1003               	clrc
  2256  0570  1283               	bcf	3,5	;RP0=0, select bank0
  2257  0571  1303               	bcf	3,6	;RP1=0, select bank0
  2258  0572  0D50               	rlf	___fltol@f1+2,w
  2259  0573  0D51               	rlf	___fltol@f1+3,w
  2260  0574  00D2               	movwf	??___fltol
  2261  0575  0852               	movf	??___fltol,w
  2262  0576  00D8               	movwf	___fltol@exp1
  2263  0577  0858               	movf	___fltol@exp1,w
  2264  0578  1D03               	btfss	3,2
  2265  0579  2D7B               	goto	u1431
  2266  057A  2D7C               	goto	u1430
  2267  057B                     u1431:
  2268  057B  2D85               	goto	l1864
  2269  057C                     u1430:
  2270  057C                     l1860:
  2271  057C  3000               	movlw	0
  2272  057D  00D1               	movwf	?___fltol+3
  2273  057E  3000               	movlw	0
  2274  057F  00D0               	movwf	?___fltol+2
  2275  0580  3000               	movlw	0
  2276  0581  00CF               	movwf	?___fltol+1
  2277  0582  3000               	movlw	0
  2278  0583  00CE               	movwf	?___fltol
  2279  0584  2DEA               	goto	l512
  2280  0585                     l1864:
  2281  0585  084E               	movf	___fltol@f1,w
  2282  0586  00D2               	movwf	??___fltol
  2283  0587  084F               	movf	___fltol@f1+1,w
  2284  0588  00D3               	movwf	??___fltol+1
  2285  0589  0850               	movf	___fltol@f1+2,w
  2286  058A  00D4               	movwf	??___fltol+2
  2287  058B  0851               	movf	___fltol@f1+3,w
  2288  058C  00D5               	movwf	??___fltol+3
  2289  058D  301F               	movlw	31
  2290  058E                     u1445:
  2291  058E  1003               	clrc
  2292  058F  0CD5               	rrf	??___fltol+3,f
  2293  0590  0CD4               	rrf	??___fltol+2,f
  2294  0591  0CD3               	rrf	??___fltol+1,f
  2295  0592  0CD2               	rrf	??___fltol,f
  2296  0593                     u1440:
  2297  0593  3EFF               	addlw	-1
  2298  0594  1D03               	skipz
  2299  0595  2D8E               	goto	u1445
  2300  0596  0852               	movf	??___fltol,w
  2301  0597  00D6               	movwf	??___fltol+4
  2302  0598  0856               	movf	??___fltol+4,w
  2303  0599  00D7               	movwf	___fltol@sign1
  2304  059A                     l1866:
  2305  059A  17D0               	bsf	___fltol@f1+2,7
  2306  059B                     l1868:
  2307  059B  30FF               	movlw	255
  2308  059C  05CE               	andwf	___fltol@f1,f
  2309  059D  30FF               	movlw	255
  2310  059E  05CF               	andwf	___fltol@f1+1,f
  2311  059F  30FF               	movlw	255
  2312  05A0  05D0               	andwf	___fltol@f1+2,f
  2313  05A1  3000               	movlw	0
  2314  05A2  05D1               	andwf	___fltol@f1+3,f
  2315  05A3                     l1870:
  2316  05A3  3096               	movlw	150
  2317  05A4  02D8               	subwf	___fltol@exp1,f
  2318  05A5                     l1872:
  2319  05A5  1FD8               	btfss	___fltol@exp1,7
  2320  05A6  2DA8               	goto	u1451
  2321  05A7  2DA9               	goto	u1450
  2322  05A8                     u1451:
  2323  05A8  2DC3               	goto	l1882
  2324  05A9                     u1450:
  2325  05A9                     l1874:
  2326  05A9  0858               	movf	___fltol@exp1,w
  2327  05AA  3A80               	xorlw	128
  2328  05AB  3E97               	addlw	151
  2329  05AC  1803               	skipnc
  2330  05AD  2DAF               	goto	u1461
  2331  05AE  2DB0               	goto	u1460
  2332  05AF                     u1461:
  2333  05AF  2DB1               	goto	l1880
  2334  05B0                     u1460:
  2335  05B0  2D7C               	goto	l1860
  2336  05B1                     l1880:
  2337  05B1  3001               	movlw	1
  2338  05B2                     u1475:
  2339  05B2  1003               	clrc
  2340  05B3  0CD1               	rrf	___fltol@f1+3,f
  2341  05B4  0CD0               	rrf	___fltol@f1+2,f
  2342  05B5  0CCF               	rrf	___fltol@f1+1,f
  2343  05B6  0CCE               	rrf	___fltol@f1,f
  2344  05B7  3EFF               	addlw	-1
  2345  05B8  1D03               	skipz
  2346  05B9  2DB2               	goto	u1475
  2347  05BA  3001               	movlw	1
  2348  05BB  00D2               	movwf	??___fltol
  2349  05BC  0852               	movf	??___fltol,w
  2350  05BD  07D8               	addwf	___fltol@exp1,f
  2351  05BE  1D03               	btfss	3,2
  2352  05BF  2DC1               	goto	u1481
  2353  05C0  2DC2               	goto	u1480
  2354  05C1                     u1481:
  2355  05C1  2DB1               	goto	l1880
  2356  05C2                     u1480:
  2357  05C2  2DDA               	goto	l1890
  2358  05C3                     l1882:
  2359  05C3  3020               	movlw	32
  2360  05C4  0258               	subwf	___fltol@exp1,w
  2361  05C5  1C03               	skipc
  2362  05C6  2DC8               	goto	u1491
  2363  05C7  2DC9               	goto	u1490
  2364  05C8                     u1491:
  2365  05C8  2DD5               	goto	l519
  2366  05C9                     u1490:
  2367  05C9  2D7C               	goto	l1860
  2368  05CA                     l1888:
  2369  05CA  3001               	movlw	1
  2370  05CB  00D2               	movwf	??___fltol
  2371  05CC                     u1505:
  2372  05CC  1003               	clrc
  2373  05CD  0DCE               	rlf	___fltol@f1,f
  2374  05CE  0DCF               	rlf	___fltol@f1+1,f
  2375  05CF  0DD0               	rlf	___fltol@f1+2,f
  2376  05D0  0DD1               	rlf	___fltol@f1+3,f
  2377  05D1  0BD2               	decfsz	??___fltol,f
  2378  05D2  2DCC               	goto	u1505
  2379  05D3  3001               	movlw	1
  2380  05D4  02D8               	subwf	___fltol@exp1,f
  2381  05D5                     l519:
  2382  05D5  0858               	movf	___fltol@exp1,w
  2383  05D6  1D03               	btfss	3,2
  2384  05D7  2DD9               	goto	u1511
  2385  05D8  2DDA               	goto	u1510
  2386  05D9                     u1511:
  2387  05D9  2DCA               	goto	l1888
  2388  05DA                     u1510:
  2389  05DA                     l1890:
  2390  05DA  0857               	movf	___fltol@sign1,w
  2391  05DB  1903               	btfsc	3,2
  2392  05DC  2DDE               	goto	u1521
  2393  05DD  2DDF               	goto	u1520
  2394  05DE                     u1521:
  2395  05DE  2DEA               	goto	l522
  2396  05DF                     u1520:
  2397  05DF                     l1892:
  2398  05DF  09CE               	comf	___fltol@f1,f
  2399  05E0  09CF               	comf	___fltol@f1+1,f
  2400  05E1  09D0               	comf	___fltol@f1+2,f
  2401  05E2  09D1               	comf	___fltol@f1+3,f
  2402  05E3  0ACE               	incf	___fltol@f1,f
  2403  05E4  1903               	skipnz
  2404  05E5  0ACF               	incf	___fltol@f1+1,f
  2405  05E6  1903               	skipnz
  2406  05E7  0AD0               	incf	___fltol@f1+2,f
  2407  05E8  1903               	skipnz
  2408  05E9  0AD1               	incf	___fltol@f1+3,f
  2409  05EA                     l522:
  2410  05EA                     l512:
  2411  05EA  0008               	return
  2412  05EB                     __end_of___fltol:
  2413                           
  2414                           	psect	text6
  2415  0258                     __ptext6:	
  2416 ;; *************** function ___fldiv *****************
  2417 ;; Defined at:
  2418 ;;		line 8 in file "C:\Program Files\Microchip\xc8\v2.32\pic\sources\c90\common\sprcdiv.c"
  2419 ;; Parameters:    Size  Location     Type
  2420 ;;  a               4   20[BANK0 ] long 
  2421 ;;  b               4   24[BANK0 ] long 
  2422 ;; Auto vars:     Size  Location     Type
  2423 ;;  grs             4   40[BANK0 ] unsigned long 
  2424 ;;  rem             4   33[BANK0 ] unsigned long 
  2425 ;;  new_exp         2   38[BANK0 ] int 
  2426 ;;  aexp            1   45[BANK0 ] unsigned char 
  2427 ;;  bexp            1   44[BANK0 ] unsigned char 
  2428 ;;  sign            1   37[BANK0 ] unsigned char 
  2429 ;; Return value:  Size  Location     Type
  2430 ;;                  4   20[BANK0 ] unsigned char 
  2431 ;; Registers used:
  2432 ;;		wreg, status,2, status,0, btemp+1
  2433 ;; Tracked objects:
  2434 ;;		On entry : 0/0
  2435 ;;		On exit  : 0/0
  2436 ;;		Unchanged: 0/0
  2437 ;; Data sizes:     COMMON   BANK0   BANK1   BANK3   BANK2
  2438 ;;      Params:         0       8       0       0       0
  2439 ;;      Locals:         0      13       0       0       0
  2440 ;;      Temps:          0       5       0       0       0
  2441 ;;      Totals:         0      26       0       0       0
  2442 ;;Total ram usage:       26 bytes
  2443 ;; Hardware stack levels used: 1
  2444 ;; Hardware stack levels required when called: 2
  2445 ;; This function calls:
  2446 ;;		Nothing
  2447 ;; This function is called by:
  2448 ;;		_main
  2449 ;; This function uses a non-reentrant model
  2450 ;;
  2451                           
  2452                           
  2453                           ;psect for function ___fldiv
  2454  0258                     ___fldiv:
  2455  0258                     l1894:	
  2456                           ;incstack = 0
  2457                           ; Regs used in ___fldiv: [wreg+status,2+status,0+btemp+1]
  2458                           
  2459  0258  1283               	bcf	3,5	;RP0=0, select bank0
  2460  0259  1303               	bcf	3,6	;RP1=0, select bank0
  2461  025A  083B               	movf	___fldiv@b+3,w
  2462  025B  3980               	andlw	128
  2463  025C  00BC               	movwf	??___fldiv
  2464  025D  083C               	movf	??___fldiv,w
  2465  025E  00C5               	movwf	___fldiv@sign
  2466  025F                     l1896:
  2467  025F  083B               	movf	___fldiv@b+3,w
  2468  0260  00BC               	movwf	??___fldiv
  2469  0261  073C               	addwf	??___fldiv,w
  2470  0262  00BD               	movwf	??___fldiv+1
  2471  0263  083D               	movf	??___fldiv+1,w
  2472  0264  00CC               	movwf	___fldiv@bexp
  2473  0265                     l1898:
  2474  0265  1FBA               	btfss	___fldiv@b+2,7
  2475  0266  2A68               	goto	u1531
  2476  0267  2A69               	goto	u1530
  2477  0268                     u1531:
  2478  0268  2A6A               	goto	l1902
  2479  0269                     u1530:
  2480  0269                     l1900:
  2481  0269  144C               	bsf	___fldiv@bexp,0
  2482  026A                     l1902:
  2483  026A  084C               	movf	___fldiv@bexp,w
  2484  026B  1903               	btfsc	3,2
  2485  026C  2A6E               	goto	u1541
  2486  026D  2A6F               	goto	u1540
  2487  026E                     u1541:
  2488  026E  2A7F               	goto	l1912
  2489  026F                     u1540:
  2490  026F                     l1904:
  2491  026F  0A4C               	incf	___fldiv@bexp,w
  2492  0270  1D03               	btfss	3,2
  2493  0271  2A73               	goto	u1551
  2494  0272  2A74               	goto	u1550
  2495  0273                     u1551:
  2496  0273  2A7C               	goto	l1908
  2497  0274                     u1550:
  2498  0274                     l1906:
  2499  0274  3000               	movlw	0
  2500  0275  00BB               	movwf	___fldiv@b+3
  2501  0276  3000               	movlw	0
  2502  0277  00BA               	movwf	___fldiv@b+2
  2503  0278  3000               	movlw	0
  2504  0279  00B9               	movwf	___fldiv@b+1
  2505  027A  3000               	movlw	0
  2506  027B  00B8               	movwf	___fldiv@b
  2507  027C                     l1908:
  2508  027C  17BA               	bsf	___fldiv@b+2,7
  2509  027D                     l1910:
  2510  027D  01BB               	clrf	___fldiv@b+3
  2511  027E  2A87               	goto	l1914
  2512  027F                     l1912:
  2513  027F  3000               	movlw	0
  2514  0280  00BB               	movwf	___fldiv@b+3
  2515  0281  3000               	movlw	0
  2516  0282  00BA               	movwf	___fldiv@b+2
  2517  0283  3000               	movlw	0
  2518  0284  00B9               	movwf	___fldiv@b+1
  2519  0285  3000               	movlw	0
  2520  0286  00B8               	movwf	___fldiv@b
  2521  0287                     l1914:
  2522  0287  0837               	movf	___fldiv@a+3,w
  2523  0288  3980               	andlw	128
  2524  0289  00BC               	movwf	??___fldiv
  2525  028A  083C               	movf	??___fldiv,w
  2526  028B  06C5               	xorwf	___fldiv@sign,f
  2527  028C                     l1916:
  2528  028C  0837               	movf	___fldiv@a+3,w
  2529  028D  00BC               	movwf	??___fldiv
  2530  028E  073C               	addwf	??___fldiv,w
  2531  028F  00BD               	movwf	??___fldiv+1
  2532  0290  083D               	movf	??___fldiv+1,w
  2533  0291  00CD               	movwf	___fldiv@aexp
  2534  0292                     l1918:
  2535  0292  1FB6               	btfss	___fldiv@a+2,7
  2536  0293  2A95               	goto	u1561
  2537  0294  2A96               	goto	u1560
  2538  0295                     u1561:
  2539  0295  2A97               	goto	l1922
  2540  0296                     u1560:
  2541  0296                     l1920:
  2542  0296  144D               	bsf	___fldiv@aexp,0
  2543  0297                     l1922:
  2544  0297  084D               	movf	___fldiv@aexp,w
  2545  0298  1903               	btfsc	3,2
  2546  0299  2A9B               	goto	u1571
  2547  029A  2A9C               	goto	u1570
  2548  029B                     u1571:
  2549  029B  2AAC               	goto	l1932
  2550  029C                     u1570:
  2551  029C                     l1924:
  2552  029C  0A4D               	incf	___fldiv@aexp,w
  2553  029D  1D03               	btfss	3,2
  2554  029E  2AA0               	goto	u1581
  2555  029F  2AA1               	goto	u1580
  2556  02A0                     u1581:
  2557  02A0  2AA9               	goto	l1928
  2558  02A1                     u1580:
  2559  02A1                     l1926:
  2560  02A1  3000               	movlw	0
  2561  02A2  00B7               	movwf	___fldiv@a+3
  2562  02A3  3000               	movlw	0
  2563  02A4  00B6               	movwf	___fldiv@a+2
  2564  02A5  3000               	movlw	0
  2565  02A6  00B5               	movwf	___fldiv@a+1
  2566  02A7  3000               	movlw	0
  2567  02A8  00B4               	movwf	___fldiv@a
  2568  02A9                     l1928:
  2569  02A9  17B6               	bsf	___fldiv@a+2,7
  2570  02AA                     l1930:
  2571  02AA  01B7               	clrf	___fldiv@a+3
  2572  02AB  2AB4               	goto	l675
  2573  02AC                     l1932:
  2574  02AC  3000               	movlw	0
  2575  02AD  00B7               	movwf	___fldiv@a+3
  2576  02AE  3000               	movlw	0
  2577  02AF  00B6               	movwf	___fldiv@a+2
  2578  02B0  3000               	movlw	0
  2579  02B1  00B5               	movwf	___fldiv@a+1
  2580  02B2  3000               	movlw	0
  2581  02B3  00B4               	movwf	___fldiv@a
  2582  02B4                     l675:
  2583  02B4  0837               	movf	___fldiv@a+3,w
  2584  02B5  0436               	iorwf	___fldiv@a+2,w
  2585  02B6  0435               	iorwf	___fldiv@a+1,w
  2586  02B7  0434               	iorwf	___fldiv@a,w
  2587  02B8  1D03               	skipz
  2588  02B9  2ABB               	goto	u1591
  2589  02BA  2ABC               	goto	u1590
  2590  02BB                     u1591:
  2591  02BB  2AD5               	goto	l1942
  2592  02BC                     u1590:
  2593  02BC                     l1934:
  2594  02BC  3000               	movlw	0
  2595  02BD  00BB               	movwf	___fldiv@b+3
  2596  02BE  3000               	movlw	0
  2597  02BF  00BA               	movwf	___fldiv@b+2
  2598  02C0  3000               	movlw	0
  2599  02C1  00B9               	movwf	___fldiv@b+1
  2600  02C2  3000               	movlw	0
  2601  02C3  00B8               	movwf	___fldiv@b
  2602  02C4  3080               	movlw	128
  2603  02C5  04BA               	iorwf	___fldiv@b+2,f
  2604  02C6  307F               	movlw	127
  2605  02C7  04BB               	iorwf	___fldiv@b+3,f
  2606  02C8                     l1936:
  2607  02C8  0845               	movf	___fldiv@sign,w
  2608  02C9  00BC               	movwf	??___fldiv
  2609  02CA  083C               	movf	??___fldiv,w
  2610  02CB  04BB               	iorwf	___fldiv@b+3,f
  2611  02CC                     l1938:
  2612  02CC  083B               	movf	___fldiv@b+3,w
  2613  02CD  00B7               	movwf	?___fldiv+3
  2614  02CE  083A               	movf	___fldiv@b+2,w
  2615  02CF  00B6               	movwf	?___fldiv+2
  2616  02D0  0839               	movf	___fldiv@b+1,w
  2617  02D1  00B5               	movwf	?___fldiv+1
  2618  02D2  0838               	movf	___fldiv@b,w
  2619  02D3  00B4               	movwf	?___fldiv
  2620  02D4  2C34               	goto	l677
  2621  02D5                     l1942:
  2622  02D5  084C               	movf	___fldiv@bexp,w
  2623  02D6  1D03               	btfss	3,2
  2624  02D7  2AD9               	goto	u1601
  2625  02D8  2ADA               	goto	u1600
  2626  02D9                     u1601:
  2627  02D9  2AE3               	goto	l1948
  2628  02DA                     u1600:
  2629  02DA                     l1944:
  2630  02DA  3000               	movlw	0
  2631  02DB  00B7               	movwf	?___fldiv+3
  2632  02DC  3000               	movlw	0
  2633  02DD  00B6               	movwf	?___fldiv+2
  2634  02DE  3000               	movlw	0
  2635  02DF  00B5               	movwf	?___fldiv+1
  2636  02E0  3000               	movlw	0
  2637  02E1  00B4               	movwf	?___fldiv
  2638  02E2  2C34               	goto	l677
  2639  02E3                     l1948:
  2640  02E3  084C               	movf	___fldiv@bexp,w
  2641  02E4  00BC               	movwf	??___fldiv
  2642  02E5  01BD               	clrf	??___fldiv+1
  2643  02E6  083D               	movf	??___fldiv+1,w
  2644  02E7  00BF               	movwf	??___fldiv+3
  2645  02E8  084D               	movf	___fldiv@aexp,w
  2646  02E9  023C               	subwf	??___fldiv,w
  2647  02EA  00BE               	movwf	??___fldiv+2
  2648  02EB  1C03               	skipc
  2649  02EC  03BF               	decf	??___fldiv+3,f
  2650  02ED  083E               	movf	??___fldiv+2,w
  2651  02EE  3E7F               	addlw	127
  2652  02EF  00C6               	movwf	___fldiv@new_exp
  2653  02F0  083F               	movf	??___fldiv+3,w
  2654  02F1  1803               	skipnc
  2655  02F2  3E01               	addlw	1
  2656  02F3  3E00               	addlw	0
  2657  02F4  00C7               	movwf	___fldiv@new_exp+1
  2658  02F5                     l1950:
  2659  02F5  083B               	movf	___fldiv@b+3,w
  2660  02F6  00C4               	movwf	___fldiv@rem+3
  2661  02F7  083A               	movf	___fldiv@b+2,w
  2662  02F8  00C3               	movwf	___fldiv@rem+2
  2663  02F9  0839               	movf	___fldiv@b+1,w
  2664  02FA  00C2               	movwf	___fldiv@rem+1
  2665  02FB  0838               	movf	___fldiv@b,w
  2666  02FC  00C1               	movwf	___fldiv@rem
  2667  02FD                     l1952:
  2668  02FD  3000               	movlw	0
  2669  02FE  00BB               	movwf	___fldiv@b+3
  2670  02FF  3000               	movlw	0
  2671  0300  00BA               	movwf	___fldiv@b+2
  2672  0301  3000               	movlw	0
  2673  0302  00B9               	movwf	___fldiv@b+1
  2674  0303  3000               	movlw	0
  2675  0304  00B8               	movwf	___fldiv@b
  2676  0305                     l1954:
  2677  0305  3000               	movlw	0
  2678  0306  00CB               	movwf	___fldiv@grs+3
  2679  0307  3000               	movlw	0
  2680  0308  00CA               	movwf	___fldiv@grs+2
  2681  0309  3000               	movlw	0
  2682  030A  00C9               	movwf	___fldiv@grs+1
  2683  030B  3000               	movlw	0
  2684  030C  00C8               	movwf	___fldiv@grs
  2685  030D                     l1956:
  2686  030D  01CD               	clrf	___fldiv@aexp
  2687  030E  2B59               	goto	l1976
  2688  030F                     l1958:
  2689  030F  084D               	movf	___fldiv@aexp,w
  2690  0310  1903               	btfsc	3,2
  2691  0311  2B13               	goto	u1611
  2692  0312  2B14               	goto	u1610
  2693  0313                     u1611:
  2694  0313  2B34               	goto	l1968
  2695  0314                     u1610:
  2696  0314                     l1960:
  2697  0314  3001               	movlw	1
  2698  0315  00BC               	movwf	??___fldiv
  2699  0316                     u1625:
  2700  0316  1003               	clrc
  2701  0317  0DC1               	rlf	___fldiv@rem,f
  2702  0318  0DC2               	rlf	___fldiv@rem+1,f
  2703  0319  0DC3               	rlf	___fldiv@rem+2,f
  2704  031A  0DC4               	rlf	___fldiv@rem+3,f
  2705  031B  0BBC               	decfsz	??___fldiv,f
  2706  031C  2B16               	goto	u1625
  2707  031D  3001               	movlw	1
  2708  031E  00BC               	movwf	??___fldiv
  2709  031F                     u1635:
  2710  031F  1003               	clrc
  2711  0320  0DB8               	rlf	___fldiv@b,f
  2712  0321  0DB9               	rlf	___fldiv@b+1,f
  2713  0322  0DBA               	rlf	___fldiv@b+2,f
  2714  0323  0DBB               	rlf	___fldiv@b+3,f
  2715  0324  0BBC               	decfsz	??___fldiv,f
  2716  0325  2B1F               	goto	u1635
  2717  0326                     l1962:
  2718  0326  1FCB               	btfss	___fldiv@grs+3,7
  2719  0327  2B29               	goto	u1641
  2720  0328  2B2A               	goto	u1640
  2721  0329                     u1641:
  2722  0329  2B2B               	goto	l1966
  2723  032A                     u1640:
  2724  032A                     l1964:
  2725  032A  1438               	bsf	___fldiv@b,0
  2726  032B                     l1966:
  2727  032B  3001               	movlw	1
  2728  032C  00BC               	movwf	??___fldiv
  2729  032D                     u1655:
  2730  032D  1003               	clrc
  2731  032E  0DC8               	rlf	___fldiv@grs,f
  2732  032F  0DC9               	rlf	___fldiv@grs+1,f
  2733  0330  0DCA               	rlf	___fldiv@grs+2,f
  2734  0331  0DCB               	rlf	___fldiv@grs+3,f
  2735  0332  0BBC               	decfsz	??___fldiv,f
  2736  0333  2B2D               	goto	u1655
  2737  0334                     l1968:
  2738  0334  0837               	movf	___fldiv@a+3,w
  2739  0335  0244               	subwf	___fldiv@rem+3,w
  2740  0336  1D03               	skipz
  2741  0337  2B42               	goto	u1665
  2742  0338  0836               	movf	___fldiv@a+2,w
  2743  0339  0243               	subwf	___fldiv@rem+2,w
  2744  033A  1D03               	skipz
  2745  033B  2B42               	goto	u1665
  2746  033C  0835               	movf	___fldiv@a+1,w
  2747  033D  0242               	subwf	___fldiv@rem+1,w
  2748  033E  1D03               	skipz
  2749  033F  2B42               	goto	u1665
  2750  0340  0834               	movf	___fldiv@a,w
  2751  0341  0241               	subwf	___fldiv@rem,w
  2752  0342                     u1665:
  2753  0342  1C03               	skipc
  2754  0343  2B45               	goto	u1661
  2755  0344  2B46               	goto	u1660
  2756  0345                     u1661:
  2757  0345  2B55               	goto	l1974
  2758  0346                     u1660:
  2759  0346                     l1970:
  2760  0346  174B               	bsf	___fldiv@grs+3,6
  2761  0347                     l1972:
  2762  0347  0834               	movf	___fldiv@a,w
  2763  0348  02C1               	subwf	___fldiv@rem,f
  2764  0349  0835               	movf	___fldiv@a+1,w
  2765  034A  1C03               	skipc
  2766  034B  0F35               	incfsz	___fldiv@a+1,w
  2767  034C  02C2               	subwf	___fldiv@rem+1,f
  2768  034D  0836               	movf	___fldiv@a+2,w
  2769  034E  1C03               	skipc
  2770  034F  0F36               	incfsz	___fldiv@a+2,w
  2771  0350  02C3               	subwf	___fldiv@rem+2,f
  2772  0351  0837               	movf	___fldiv@a+3,w
  2773  0352  1C03               	skipc
  2774  0353  0F37               	incfsz	___fldiv@a+3,w
  2775  0354  02C4               	subwf	___fldiv@rem+3,f
  2776  0355                     l1974:
  2777  0355  3001               	movlw	1
  2778  0356  00BC               	movwf	??___fldiv
  2779  0357  083C               	movf	??___fldiv,w
  2780  0358  07CD               	addwf	___fldiv@aexp,f
  2781  0359                     l1976:
  2782  0359  301A               	movlw	26
  2783  035A  024D               	subwf	___fldiv@aexp,w
  2784  035B  1C03               	skipc
  2785  035C  2B5E               	goto	u1671
  2786  035D  2B5F               	goto	u1670
  2787  035E                     u1671:
  2788  035E  2B0F               	goto	l1958
  2789  035F                     u1670:
  2790  035F                     l1978:
  2791  035F  0844               	movf	___fldiv@rem+3,w
  2792  0360  0443               	iorwf	___fldiv@rem+2,w
  2793  0361  0442               	iorwf	___fldiv@rem+1,w
  2794  0362  0441               	iorwf	___fldiv@rem,w
  2795  0363  1903               	skipnz
  2796  0364  2B66               	goto	u1681
  2797  0365  2B67               	goto	u1680
  2798  0366                     u1681:
  2799  0366  2B86               	goto	l1992
  2800  0367                     u1680:
  2801  0367                     l1980:
  2802  0367  1448               	bsf	___fldiv@grs,0
  2803  0368  2B86               	goto	l1992
  2804  0369                     l1982:
  2805  0369  3001               	movlw	1
  2806  036A  00BC               	movwf	??___fldiv
  2807  036B                     u1695:
  2808  036B  1003               	clrc
  2809  036C  0DB8               	rlf	___fldiv@b,f
  2810  036D  0DB9               	rlf	___fldiv@b+1,f
  2811  036E  0DBA               	rlf	___fldiv@b+2,f
  2812  036F  0DBB               	rlf	___fldiv@b+3,f
  2813  0370  0BBC               	decfsz	??___fldiv,f
  2814  0371  2B6B               	goto	u1695
  2815  0372                     l1984:
  2816  0372  1FCB               	btfss	___fldiv@grs+3,7
  2817  0373  2B75               	goto	u1701
  2818  0374  2B76               	goto	u1700
  2819  0375                     u1701:
  2820  0375  2B77               	goto	l1988
  2821  0376                     u1700:
  2822  0376                     l1986:
  2823  0376  1438               	bsf	___fldiv@b,0
  2824  0377                     l1988:
  2825  0377  3001               	movlw	1
  2826  0378  00BC               	movwf	??___fldiv
  2827  0379                     u1715:
  2828  0379  1003               	clrc
  2829  037A  0DC8               	rlf	___fldiv@grs,f
  2830  037B  0DC9               	rlf	___fldiv@grs+1,f
  2831  037C  0DCA               	rlf	___fldiv@grs+2,f
  2832  037D  0DCB               	rlf	___fldiv@grs+3,f
  2833  037E  0BBC               	decfsz	??___fldiv,f
  2834  037F  2B79               	goto	u1715
  2835  0380                     l1990:
  2836  0380  30FF               	movlw	255
  2837  0381  07C6               	addwf	___fldiv@new_exp,f
  2838  0382  1803               	skipnc
  2839  0383  0AC7               	incf	___fldiv@new_exp+1,f
  2840  0384  30FF               	movlw	255
  2841  0385  07C7               	addwf	___fldiv@new_exp+1,f
  2842  0386                     l1992:
  2843  0386  1FBA               	btfss	___fldiv@b+2,7
  2844  0387  2B89               	goto	u1721
  2845  0388  2B8A               	goto	u1720
  2846  0389                     u1721:
  2847  0389  2B69               	goto	l1982
  2848  038A                     u1720:
  2849  038A                     l1994:
  2850  038A  01CD               	clrf	___fldiv@aexp
  2851  038B                     l1996:
  2852  038B  1FCB               	btfss	___fldiv@grs+3,7
  2853  038C  2B8E               	goto	u1731
  2854  038D  2B8F               	goto	u1730
  2855  038E                     u1731:
  2856  038E  2BAB               	goto	l2004
  2857  038F                     u1730:
  2858  038F                     l1998:
  2859  038F  30FF               	movlw	255
  2860  0390  0548               	andwf	___fldiv@grs,w
  2861  0391  00BC               	movwf	??___fldiv
  2862  0392  30FF               	movlw	255
  2863  0393  0549               	andwf	___fldiv@grs+1,w
  2864  0394  00BD               	movwf	??___fldiv+1
  2865  0395  30FF               	movlw	255
  2866  0396  054A               	andwf	___fldiv@grs+2,w
  2867  0397  00BE               	movwf	??___fldiv+2
  2868  0398  307F               	movlw	127
  2869  0399  054B               	andwf	___fldiv@grs+3,w
  2870  039A  00BF               	movwf	??___fldiv+3
  2871  039B  083F               	movf	??___fldiv+3,w
  2872  039C  043E               	iorwf	??___fldiv+2,w
  2873  039D  043D               	iorwf	??___fldiv+1,w
  2874  039E  043C               	iorwf	??___fldiv,w
  2875  039F  1903               	skipnz
  2876  03A0  2BA2               	goto	u1741
  2877  03A1  2BA3               	goto	u1740
  2878  03A2                     u1741:
  2879  03A2  2BA6               	goto	l691
  2880  03A3                     u1740:
  2881  03A3                     l2000:
  2882  03A3  01CD               	clrf	___fldiv@aexp
  2883  03A4  0ACD               	incf	___fldiv@aexp,f
  2884  03A5  2BAB               	goto	l2004
  2885  03A6                     l691:
  2886  03A6  1C38               	btfss	___fldiv@b,0
  2887  03A7  2BA9               	goto	u1751
  2888  03A8  2BAA               	goto	u1750
  2889  03A9                     u1751:
  2890  03A9  2BAB               	goto	l2004
  2891  03AA                     u1750:
  2892  03AA  2BA3               	goto	l2000
  2893  03AB                     l2004:
  2894  03AB  084D               	movf	___fldiv@aexp,w
  2895  03AC  1903               	btfsc	3,2
  2896  03AD  2BAF               	goto	u1761
  2897  03AE  2BB0               	goto	u1760
  2898  03AF                     u1761:
  2899  03AF  2BE1               	goto	l2014
  2900  03B0                     u1760:
  2901  03B0                     l2006:
  2902  03B0  3001               	movlw	1
  2903  03B1  07B8               	addwf	___fldiv@b,f
  2904  03B2  3000               	movlw	0
  2905  03B3  1803               	skipnc
  2906  03B4  3001               	movlw	1
  2907  03B5  07B9               	addwf	___fldiv@b+1,f
  2908  03B6  3000               	movlw	0
  2909  03B7  1803               	skipnc
  2910  03B8  3001               	movlw	1
  2911  03B9  07BA               	addwf	___fldiv@b+2,f
  2912  03BA  3000               	movlw	0
  2913  03BB  1803               	skipnc
  2914  03BC  3001               	movlw	1
  2915  03BD  07BB               	addwf	___fldiv@b+3,f
  2916  03BE                     l2008:
  2917  03BE  1C3B               	btfss	___fldiv@b+3,0
  2918  03BF  2BC1               	goto	u1771
  2919  03C0  2BC2               	goto	u1770
  2920  03C1                     u1771:
  2921  03C1  2BE1               	goto	l2014
  2922  03C2                     u1770:
  2923  03C2                     l2010:
  2924  03C2  0838               	movf	___fldiv@b,w
  2925  03C3  00BC               	movwf	??___fldiv
  2926  03C4  0839               	movf	___fldiv@b+1,w
  2927  03C5  00BD               	movwf	??___fldiv+1
  2928  03C6  083A               	movf	___fldiv@b+2,w
  2929  03C7  00BE               	movwf	??___fldiv+2
  2930  03C8  083B               	movf	___fldiv@b+3,w
  2931  03C9  00BF               	movwf	??___fldiv+3
  2932  03CA  3001               	movlw	1
  2933  03CB  00C0               	movwf	??___fldiv+4
  2934  03CC                     u1785:
  2935  03CC  0D3F               	rlf	??___fldiv+3,w
  2936  03CD  0CBF               	rrf	??___fldiv+3,f
  2937  03CE  0CBE               	rrf	??___fldiv+2,f
  2938  03CF  0CBD               	rrf	??___fldiv+1,f
  2939  03D0  0CBC               	rrf	??___fldiv,f
  2940  03D1                     u1780:
  2941  03D1  0BC0               	decfsz	??___fldiv+4,f
  2942  03D2  2BCC               	goto	u1785
  2943  03D3  083F               	movf	??___fldiv+3,w
  2944  03D4  00BB               	movwf	___fldiv@b+3
  2945  03D5  083E               	movf	??___fldiv+2,w
  2946  03D6  00BA               	movwf	___fldiv@b+2
  2947  03D7  083D               	movf	??___fldiv+1,w
  2948  03D8  00B9               	movwf	___fldiv@b+1
  2949  03D9  083C               	movf	??___fldiv,w
  2950  03DA  00B8               	movwf	___fldiv@b
  2951  03DB                     l2012:
  2952  03DB  3001               	movlw	1
  2953  03DC  07C6               	addwf	___fldiv@new_exp,f
  2954  03DD  1803               	skipnc
  2955  03DE  0AC7               	incf	___fldiv@new_exp+1,f
  2956  03DF  3000               	movlw	0
  2957  03E0  07C7               	addwf	___fldiv@new_exp+1,f
  2958  03E1                     l2014:
  2959  03E1  0847               	movf	___fldiv@new_exp+1,w
  2960  03E2  3A80               	xorlw	128
  2961  03E3  00FF               	movwf	btemp+1
  2962  03E4  3080               	movlw	128
  2963  03E5  027F               	subwf	btemp+1,w
  2964  03E6  1D03               	skipz
  2965  03E7  2BEA               	goto	u1795
  2966  03E8  30FF               	movlw	255
  2967  03E9  0246               	subwf	___fldiv@new_exp,w
  2968  03EA                     u1795:
  2969  03EA  1C03               	skipc
  2970  03EB  2BED               	goto	u1791
  2971  03EC  2BEE               	goto	u1790
  2972  03ED                     u1791:
  2973  03ED  2BFC               	goto	l2018
  2974  03EE                     u1790:
  2975  03EE                     l2016:
  2976  03EE  30FF               	movlw	255
  2977  03EF  1283               	bcf	3,5	;RP0=0, select bank0
  2978  03F0  1303               	bcf	3,6	;RP1=0, select bank0
  2979  03F1  00C6               	movwf	___fldiv@new_exp
  2980  03F2  3000               	movlw	0
  2981  03F3  00C7               	movwf	___fldiv@new_exp+1
  2982  03F4  3000               	movlw	0
  2983  03F5  00BB               	movwf	___fldiv@b+3
  2984  03F6  3000               	movlw	0
  2985  03F7  00BA               	movwf	___fldiv@b+2
  2986  03F8  3000               	movlw	0
  2987  03F9  00B9               	movwf	___fldiv@b+1
  2988  03FA  3000               	movlw	0
  2989  03FB  00B8               	movwf	___fldiv@b
  2990  03FC                     l2018:
  2991  03FC  1283               	bcf	3,5	;RP0=0, select bank0
  2992  03FD  1303               	bcf	3,6	;RP1=0, select bank0
  2993  03FE  0847               	movf	___fldiv@new_exp+1,w
  2994  03FF  3A80               	xorlw	128
  2995  0400  00FF               	movwf	btemp+1
  2996  0401  3080               	movlw	128
  2997  0402  027F               	subwf	btemp+1,w
  2998  0403  1D03               	skipz
  2999  0404  2C07               	goto	u1805
  3000  0405  3001               	movlw	1
  3001  0406  0246               	subwf	___fldiv@new_exp,w
  3002  0407                     u1805:
  3003  0407  1803               	skipnc
  3004  0408  2C0A               	goto	u1801
  3005  0409  2C0B               	goto	u1800
  3006  040A                     u1801:
  3007  040A  2C18               	goto	l697
  3008  040B                     u1800:
  3009  040B                     l2020:
  3010  040B  1283               	bcf	3,5	;RP0=0, select bank0
  3011  040C  1303               	bcf	3,6	;RP1=0, select bank0
  3012  040D  01C6               	clrf	___fldiv@new_exp
  3013  040E  01C7               	clrf	___fldiv@new_exp+1
  3014  040F                     l2022:
  3015  040F  3000               	movlw	0
  3016  0410  00BB               	movwf	___fldiv@b+3
  3017  0411  3000               	movlw	0
  3018  0412  00BA               	movwf	___fldiv@b+2
  3019  0413  3000               	movlw	0
  3020  0414  00B9               	movwf	___fldiv@b+1
  3021  0415  3000               	movlw	0
  3022  0416  00B8               	movwf	___fldiv@b
  3023  0417                     l2024:
  3024  0417  01C5               	clrf	___fldiv@sign
  3025  0418                     l697:
  3026  0418  1283               	bcf	3,5	;RP0=0, select bank0
  3027  0419  1303               	bcf	3,6	;RP1=0, select bank0
  3028  041A  0846               	movf	___fldiv@new_exp,w
  3029  041B  00BC               	movwf	??___fldiv
  3030  041C  083C               	movf	??___fldiv,w
  3031  041D  00CC               	movwf	___fldiv@bexp
  3032  041E                     l2026:
  3033  041E  1C4C               	btfss	___fldiv@bexp,0
  3034  041F  2C21               	goto	u1811
  3035  0420  2C22               	goto	u1810
  3036  0421                     u1811:
  3037  0421  2C24               	goto	l2030
  3038  0422                     u1810:
  3039  0422                     l2028:
  3040  0422  17BA               	bsf	___fldiv@b+2,7
  3041  0423  2C28               	goto	l699
  3042  0424                     l2030:
  3043  0424  307F               	movlw	127
  3044  0425  00BC               	movwf	??___fldiv
  3045  0426  083C               	movf	??___fldiv,w
  3046  0427  05BA               	andwf	___fldiv@b+2,f
  3047  0428                     l699:
  3048  0428  084C               	movf	___fldiv@bexp,w
  3049  0429  00BC               	movwf	??___fldiv
  3050  042A  1003               	clrc
  3051  042B  0C3C               	rrf	??___fldiv,w
  3052  042C  00BD               	movwf	??___fldiv+1
  3053  042D  083D               	movf	??___fldiv+1,w
  3054  042E  00BB               	movwf	___fldiv@b+3
  3055  042F  0845               	movf	___fldiv@sign,w
  3056  0430  00BC               	movwf	??___fldiv
  3057  0431  083C               	movf	??___fldiv,w
  3058  0432  04BB               	iorwf	___fldiv@b+3,f
  3059  0433  2ACC               	goto	l1938
  3060  0434                     l677:
  3061  0434  0008               	return
  3062  0435                     __end_of___fldiv:
  3063                           
  3064                           	psect	text7
  3065  0EA7                     __ptext7:	
  3066 ;; *************** function _Lcd_Write_String *****************
  3067 ;; Defined at:
  3068 ;;		line 98 in file "LCD.c"
  3069 ;; Parameters:    Size  Location     Type
  3070 ;;  a               1    wreg     PTR unsigned char 
  3071 ;;		 -> STR_5(2), STR_4(2), STR_3(3), STR_2(3), 
  3072 ;;		 -> STR_1(17), 
  3073 ;; Auto vars:     Size  Location     Type
  3074 ;;  a               1   13[BANK0 ] PTR unsigned char 
  3075 ;;		 -> STR_5(2), STR_4(2), STR_3(3), STR_2(3), 
  3076 ;;		 -> STR_1(17), 
  3077 ;;  i               2   11[BANK0 ] int 
  3078 ;; Return value:  Size  Location     Type
  3079 ;;                  1    wreg      void 
  3080 ;; Registers used:
  3081 ;;		wreg, fsr0l, fsr0h, status,2, status,0, pclath, cstack
  3082 ;; Tracked objects:
  3083 ;;		On entry : 0/0
  3084 ;;		On exit  : 0/0
  3085 ;;		Unchanged: 0/0
  3086 ;; Data sizes:     COMMON   BANK0   BANK1   BANK3   BANK2
  3087 ;;      Params:         0       0       0       0       0
  3088 ;;      Locals:         0       3       0       0       0
  3089 ;;      Temps:          0       0       0       0       0
  3090 ;;      Totals:         0       3       0       0       0
  3091 ;;Total ram usage:        3 bytes
  3092 ;; Hardware stack levels used: 1
  3093 ;; Hardware stack levels required when called: 4
  3094 ;; This function calls:
  3095 ;;		_Lcd_Write_Char
  3096 ;; This function is called by:
  3097 ;;		_main
  3098 ;; This function uses a non-reentrant model
  3099 ;;
  3100                           
  3101                           
  3102                           ;psect for function _Lcd_Write_String
  3103  0EA7                     _Lcd_Write_String:
  3104                           
  3105                           ;incstack = 0
  3106                           ; Regs used in _Lcd_Write_String: [wreg-fsr0h+status,2+status,0+pclath+cstack]
  3107                           ;Lcd_Write_String@a stored from wreg
  3108  0EA7  1283               	bcf	3,5	;RP0=0, select bank0
  3109  0EA8  1303               	bcf	3,6	;RP1=0, select bank0
  3110  0EA9  00AD               	movwf	Lcd_Write_String@a
  3111  0EAA                     l1752:
  3112                           
  3113                           ;LCD.c: 99:     int i;;LCD.c: 100:     for (i = 0; a[i] != '\0'; i++)
  3114  0EAA  01AB               	clrf	Lcd_Write_String@i
  3115  0EAB  01AC               	clrf	Lcd_Write_String@i+1
  3116  0EAC  2EC2               	goto	l1758
  3117  0EAD                     l1754:
  3118                           
  3119                           ;LCD.c: 101:         Lcd_Write_Char(a[i]);
  3120  0EAD  082B               	movf	Lcd_Write_String@i,w
  3121  0EAE  072D               	addwf	Lcd_Write_String@a,w
  3122  0EAF  0084               	movwf	4
  3123  0EB0  120A  158A  2000  120A  158A  	fcall	stringdir
  3124  0EB5  120A  158A  273C  120A  158A  	fcall	_Lcd_Write_Char
  3125  0EBA                     l1756:
  3126  0EBA  3001               	movlw	1
  3127  0EBB  1283               	bcf	3,5	;RP0=0, select bank0
  3128  0EBC  1303               	bcf	3,6	;RP1=0, select bank0
  3129  0EBD  07AB               	addwf	Lcd_Write_String@i,f
  3130  0EBE  1803               	skipnc
  3131  0EBF  0AAC               	incf	Lcd_Write_String@i+1,f
  3132  0EC0  3000               	movlw	0
  3133  0EC1  07AC               	addwf	Lcd_Write_String@i+1,f
  3134  0EC2                     l1758:
  3135  0EC2  082B               	movf	Lcd_Write_String@i,w
  3136  0EC3  072D               	addwf	Lcd_Write_String@a,w
  3137  0EC4  0084               	movwf	4
  3138  0EC5  120A  158A  2000  120A  158A  	fcall	stringdir
  3139  0ECA  3A00               	xorlw	0
  3140  0ECB  1D03               	skipz
  3141  0ECC  2ECE               	goto	u1301
  3142  0ECD  2ECF               	goto	u1300
  3143  0ECE                     u1301:
  3144  0ECE  2EAD               	goto	l1754
  3145  0ECF                     u1300:
  3146  0ECF                     l179:
  3147  0ECF  0008               	return
  3148  0ED0                     __end_of_Lcd_Write_String:
  3149                           
  3150                           	psect	text8
  3151  0F3C                     __ptext8:	
  3152 ;; *************** function _Lcd_Write_Char *****************
  3153 ;; Defined at:
  3154 ;;		line 83 in file "LCD.c"
  3155 ;; Parameters:    Size  Location     Type
  3156 ;;  a               1    wreg     unsigned char 
  3157 ;; Auto vars:     Size  Location     Type
  3158 ;;  a               1   10[BANK0 ] unsigned char 
  3159 ;;  y               1    9[BANK0 ] unsigned char 
  3160 ;;  temp            1    8[BANK0 ] unsigned char 
  3161 ;; Return value:  Size  Location     Type
  3162 ;;                  1    wreg      void 
  3163 ;; Registers used:
  3164 ;;		wreg, status,2, status,0, pclath, cstack
  3165 ;; Tracked objects:
  3166 ;;		On entry : 0/0
  3167 ;;		On exit  : 0/0
  3168 ;;		Unchanged: 0/0
  3169 ;; Data sizes:     COMMON   BANK0   BANK1   BANK3   BANK2
  3170 ;;      Params:         0       0       0       0       0
  3171 ;;      Locals:         0       3       0       0       0
  3172 ;;      Temps:          0       1       0       0       0
  3173 ;;      Totals:         0       4       0       0       0
  3174 ;;Total ram usage:        4 bytes
  3175 ;; Hardware stack levels used: 1
  3176 ;; Hardware stack levels required when called: 3
  3177 ;; This function calls:
  3178 ;;		_Lcd_Port
  3179 ;; This function is called by:
  3180 ;;		_main
  3181 ;;		_Lcd_Write_String
  3182 ;; This function uses a non-reentrant model
  3183 ;;
  3184                           
  3185                           
  3186                           ;psect for function _Lcd_Write_Char
  3187  0F3C                     _Lcd_Write_Char:
  3188                           
  3189                           ;incstack = 0
  3190                           ; Regs used in _Lcd_Write_Char: [wreg+status,2+status,0+pclath+cstack]
  3191                           ;Lcd_Write_Char@a stored from wreg
  3192  0F3C  1283               	bcf	3,5	;RP0=0, select bank0
  3193  0F3D  1303               	bcf	3,6	;RP1=0, select bank0
  3194  0F3E  00AA               	movwf	Lcd_Write_Char@a
  3195  0F3F                     l1582:
  3196                           
  3197                           ;LCD.c: 84:     char temp, y;;LCD.c: 85:     temp = a & 0x0F;
  3198  0F3F  082A               	movf	Lcd_Write_Char@a,w
  3199  0F40  390F               	andlw	15
  3200  0F41  00A7               	movwf	??_Lcd_Write_Char
  3201  0F42  0827               	movf	??_Lcd_Write_Char,w
  3202  0F43  00A8               	movwf	Lcd_Write_Char@temp
  3203                           
  3204                           ;LCD.c: 86:     y = a & 0xF0;
  3205  0F44  082A               	movf	Lcd_Write_Char@a,w
  3206  0F45  39F0               	andlw	240
  3207  0F46  00A7               	movwf	??_Lcd_Write_Char
  3208  0F47  0827               	movf	??_Lcd_Write_Char,w
  3209  0F48  00A9               	movwf	Lcd_Write_Char@y
  3210  0F49                     l1584:
  3211                           
  3212                           ;LCD.c: 87:     RD2 = 1;
  3213  0F49  1508               	bsf	8,2	;volatile
  3214  0F4A                     l1586:
  3215                           
  3216                           ;LCD.c: 88:     Lcd_Port(y >> 4);
  3217  0F4A  0829               	movf	Lcd_Write_Char@y,w
  3218  0F4B  00A7               	movwf	??_Lcd_Write_Char
  3219  0F4C  3004               	movlw	4
  3220  0F4D                     u1115:
  3221  0F4D  1003               	clrc
  3222  0F4E  0CA7               	rrf	??_Lcd_Write_Char,f
  3223  0F4F  3EFF               	addlw	-1
  3224  0F50  1D03               	skipz
  3225  0F51  2F4D               	goto	u1115
  3226  0F52  0827               	movf	??_Lcd_Write_Char,w
  3227  0F53  120A  158A  2660  120A  158A  	fcall	_Lcd_Port
  3228  0F58                     l1588:
  3229                           
  3230                           ;LCD.c: 89:     RD3 = 1;
  3231  0F58  1283               	bcf	3,5	;RP0=0, select bank0
  3232  0F59  1303               	bcf	3,6	;RP1=0, select bank0
  3233  0F5A  1588               	bsf	8,3	;volatile
  3234  0F5B                     l1590:
  3235                           
  3236                           ;LCD.c: 90:     _delay((unsigned long)((40)*(8000000/4000000.0)));
  3237  0F5B  3019               	movlw	25
  3238  0F5C  1283               	bcf	3,5	;RP0=0, select bank0
  3239  0F5D  1303               	bcf	3,6	;RP1=0, select bank0
  3240  0F5E  00A7               	movwf	??_Lcd_Write_Char
  3241  0F5F                     u2057:
  3242  0F5F  0BA7               	decfsz	??_Lcd_Write_Char,f
  3243  0F60  2F5F               	goto	u2057
  3244  0F61  2F62               	nop2
  3245  0F62                     l1592:
  3246                           
  3247                           ;LCD.c: 91:     RD3 = 0;
  3248  0F62  1283               	bcf	3,5	;RP0=0, select bank0
  3249  0F63  1303               	bcf	3,6	;RP1=0, select bank0
  3250  0F64  1188               	bcf	8,3	;volatile
  3251  0F65                     l1594:
  3252                           
  3253                           ;LCD.c: 92:     Lcd_Port(temp);
  3254  0F65  0828               	movf	Lcd_Write_Char@temp,w
  3255  0F66  120A  158A  2660  120A  158A  	fcall	_Lcd_Port
  3256  0F6B                     l1596:
  3257                           
  3258                           ;LCD.c: 93:     RD3 = 1;
  3259  0F6B  1283               	bcf	3,5	;RP0=0, select bank0
  3260  0F6C  1303               	bcf	3,6	;RP1=0, select bank0
  3261  0F6D  1588               	bsf	8,3	;volatile
  3262  0F6E                     l1598:
  3263                           
  3264                           ;LCD.c: 94:     _delay((unsigned long)((40)*(8000000/4000000.0)));
  3265  0F6E  3019               	movlw	25
  3266  0F6F  1283               	bcf	3,5	;RP0=0, select bank0
  3267  0F70  1303               	bcf	3,6	;RP1=0, select bank0
  3268  0F71  00A7               	movwf	??_Lcd_Write_Char
  3269  0F72                     u2067:
  3270  0F72  0BA7               	decfsz	??_Lcd_Write_Char,f
  3271  0F73  2F72               	goto	u2067
  3272  0F74  2F75               	nop2
  3273  0F75                     l1600:
  3274                           
  3275                           ;LCD.c: 95:     RD3 = 0;
  3276  0F75  1283               	bcf	3,5	;RP0=0, select bank0
  3277  0F76  1303               	bcf	3,6	;RP1=0, select bank0
  3278  0F77  1188               	bcf	8,3	;volatile
  3279  0F78                     l173:
  3280  0F78  0008               	return
  3281  0F79                     __end_of_Lcd_Write_Char:
  3282                           
  3283                           	psect	text9
  3284  0790                     __ptext9:	
  3285 ;; *************** function _Lcd_Set_Cursor *****************
  3286 ;; Defined at:
  3287 ;;		line 48 in file "LCD.c"
  3288 ;; Parameters:    Size  Location     Type
  3289 ;;  a               1    wreg     unsigned char 
  3290 ;;  b               1   10[BANK0 ] unsigned char 
  3291 ;; Auto vars:     Size  Location     Type
  3292 ;;  a               1   13[BANK0 ] unsigned char 
  3293 ;;  temp            1   16[BANK0 ] unsigned char 
  3294 ;;  y               1   15[BANK0 ] unsigned char 
  3295 ;;  z               1   14[BANK0 ] unsigned char 
  3296 ;; Return value:  Size  Location     Type
  3297 ;;                  1    wreg      void 
  3298 ;; Registers used:
  3299 ;;		wreg, status,2, status,0, pclath, cstack
  3300 ;; Tracked objects:
  3301 ;;		On entry : 0/0
  3302 ;;		On exit  : 0/0
  3303 ;;		Unchanged: 0/0
  3304 ;; Data sizes:     COMMON   BANK0   BANK1   BANK3   BANK2
  3305 ;;      Params:         0       1       0       0       0
  3306 ;;      Locals:         0       4       0       0       0
  3307 ;;      Temps:          0       2       0       0       0
  3308 ;;      Totals:         0       7       0       0       0
  3309 ;;Total ram usage:        7 bytes
  3310 ;; Hardware stack levels used: 1
  3311 ;; Hardware stack levels required when called: 4
  3312 ;; This function calls:
  3313 ;;		_Lcd_Cmd
  3314 ;; This function is called by:
  3315 ;;		_main
  3316 ;; This function uses a non-reentrant model
  3317 ;;
  3318                           
  3319                           
  3320                           ;psect for function _Lcd_Set_Cursor
  3321  0790                     _Lcd_Set_Cursor:
  3322                           
  3323                           ;incstack = 0
  3324                           ; Regs used in _Lcd_Set_Cursor: [wreg+status,2+status,0+pclath+cstack]
  3325                           ;Lcd_Set_Cursor@a stored from wreg
  3326  0790  1283               	bcf	3,5	;RP0=0, select bank0
  3327  0791  1303               	bcf	3,6	;RP1=0, select bank0
  3328  0792  00AD               	movwf	Lcd_Set_Cursor@a
  3329  0793                     l1732:
  3330                           
  3331                           ;LCD.c: 49:     char temp, z, y;;LCD.c: 50:     if (a == 1) {
  3332  0793  032D               	decf	Lcd_Set_Cursor@a,w
  3333  0794  1D03               	btfss	3,2
  3334  0795  2F97               	goto	u1261
  3335  0796  2F98               	goto	u1260
  3336  0797                     u1261:
  3337  0797  2FBD               	goto	l1742
  3338  0798                     u1260:
  3339  0798                     l1734:
  3340                           
  3341                           ;LCD.c: 51:         temp = 0x80 + b - 1;
  3342  0798  082A               	movf	Lcd_Set_Cursor@b,w
  3343  0799  3E7F               	addlw	127
  3344  079A  00AB               	movwf	??_Lcd_Set_Cursor
  3345  079B  082B               	movf	??_Lcd_Set_Cursor,w
  3346  079C  00B0               	movwf	Lcd_Set_Cursor@temp
  3347                           
  3348                           ;LCD.c: 52:         z = temp >> 4;
  3349  079D  0830               	movf	Lcd_Set_Cursor@temp,w
  3350  079E  00AB               	movwf	??_Lcd_Set_Cursor
  3351  079F  3004               	movlw	4
  3352  07A0                     u1275:
  3353  07A0  1003               	clrc
  3354  07A1  0CAB               	rrf	??_Lcd_Set_Cursor,f
  3355  07A2  3EFF               	addlw	-1
  3356  07A3  1D03               	skipz
  3357  07A4  2FA0               	goto	u1275
  3358  07A5  082B               	movf	??_Lcd_Set_Cursor,w
  3359  07A6  00AC               	movwf	??_Lcd_Set_Cursor+1
  3360  07A7  082C               	movf	??_Lcd_Set_Cursor+1,w
  3361  07A8  00AE               	movwf	Lcd_Set_Cursor@z
  3362  07A9                     l1736:
  3363                           
  3364                           ;LCD.c: 53:         y = temp & 0x0F;
  3365  07A9  0830               	movf	Lcd_Set_Cursor@temp,w
  3366  07AA  390F               	andlw	15
  3367  07AB  00AB               	movwf	??_Lcd_Set_Cursor
  3368  07AC  082B               	movf	??_Lcd_Set_Cursor,w
  3369  07AD  00AF               	movwf	Lcd_Set_Cursor@y
  3370  07AE                     l1738:
  3371                           
  3372                           ;LCD.c: 54:         Lcd_Cmd(z);
  3373  07AE  082E               	movf	Lcd_Set_Cursor@z,w
  3374  07AF  120A  158A  2644  120A  118A  	fcall	_Lcd_Cmd
  3375  07B4                     l1740:
  3376                           
  3377                           ;LCD.c: 55:         Lcd_Cmd(y);
  3378  07B4  1283               	bcf	3,5	;RP0=0, select bank0
  3379  07B5  1303               	bcf	3,6	;RP1=0, select bank0
  3380  07B6  082F               	movf	Lcd_Set_Cursor@y,w
  3381  07B7  120A  158A  2644  120A  118A  	fcall	_Lcd_Cmd
  3382                           
  3383                           ;LCD.c: 56:     } else if (a == 2) {
  3384  07BC  2FE7               	goto	l167
  3385  07BD                     l1742:
  3386  07BD  3002               	movlw	2
  3387  07BE  062D               	xorwf	Lcd_Set_Cursor@a,w
  3388  07BF  1D03               	btfss	3,2
  3389  07C0  2FC2               	goto	u1281
  3390  07C1  2FC3               	goto	u1280
  3391  07C2                     u1281:
  3392  07C2  2FE7               	goto	l167
  3393  07C3                     u1280:
  3394  07C3                     l1744:
  3395                           
  3396                           ;LCD.c: 57:         temp = 0xC0 + b - 1;
  3397  07C3  082A               	movf	Lcd_Set_Cursor@b,w
  3398  07C4  3EBF               	addlw	191
  3399  07C5  00AB               	movwf	??_Lcd_Set_Cursor
  3400  07C6  082B               	movf	??_Lcd_Set_Cursor,w
  3401  07C7  00B0               	movwf	Lcd_Set_Cursor@temp
  3402                           
  3403                           ;LCD.c: 58:         z = temp >> 4;
  3404  07C8  0830               	movf	Lcd_Set_Cursor@temp,w
  3405  07C9  00AB               	movwf	??_Lcd_Set_Cursor
  3406  07CA  3004               	movlw	4
  3407  07CB                     u1295:
  3408  07CB  1003               	clrc
  3409  07CC  0CAB               	rrf	??_Lcd_Set_Cursor,f
  3410  07CD  3EFF               	addlw	-1
  3411  07CE  1D03               	skipz
  3412  07CF  2FCB               	goto	u1295
  3413  07D0  082B               	movf	??_Lcd_Set_Cursor,w
  3414  07D1  00AC               	movwf	??_Lcd_Set_Cursor+1
  3415  07D2  082C               	movf	??_Lcd_Set_Cursor+1,w
  3416  07D3  00AE               	movwf	Lcd_Set_Cursor@z
  3417  07D4                     l1746:
  3418                           
  3419                           ;LCD.c: 59:         y = temp & 0x0F;
  3420  07D4  0830               	movf	Lcd_Set_Cursor@temp,w
  3421  07D5  390F               	andlw	15
  3422  07D6  00AB               	movwf	??_Lcd_Set_Cursor
  3423  07D7  082B               	movf	??_Lcd_Set_Cursor,w
  3424  07D8  00AF               	movwf	Lcd_Set_Cursor@y
  3425  07D9                     l1748:
  3426                           
  3427                           ;LCD.c: 60:         Lcd_Cmd(z);
  3428  07D9  082E               	movf	Lcd_Set_Cursor@z,w
  3429  07DA  120A  158A  2644  120A  118A  	fcall	_Lcd_Cmd
  3430  07DF                     l1750:
  3431                           
  3432                           ;LCD.c: 61:         Lcd_Cmd(y);
  3433  07DF  1283               	bcf	3,5	;RP0=0, select bank0
  3434  07E0  1303               	bcf	3,6	;RP1=0, select bank0
  3435  07E1  082F               	movf	Lcd_Set_Cursor@y,w
  3436  07E2  120A  158A  2644  120A  118A  	fcall	_Lcd_Cmd
  3437  07E7                     l167:
  3438  07E7  0008               	return
  3439  07E8                     __end_of_Lcd_Set_Cursor:
  3440                           
  3441                           	psect	text10
  3442  072E                     __ptext10:	
  3443 ;; *************** function _Lcd_Init *****************
  3444 ;; Defined at:
  3445 ;;		line 65 in file "LCD.c"
  3446 ;; Parameters:    Size  Location     Type
  3447 ;;		None
  3448 ;; Auto vars:     Size  Location     Type
  3449 ;;		None
  3450 ;; Return value:  Size  Location     Type
  3451 ;;                  1    wreg      void 
  3452 ;; Registers used:
  3453 ;;		wreg, status,2, status,0, pclath, cstack
  3454 ;; Tracked objects:
  3455 ;;		On entry : 0/0
  3456 ;;		On exit  : 0/0
  3457 ;;		Unchanged: 0/0
  3458 ;; Data sizes:     COMMON   BANK0   BANK1   BANK3   BANK2
  3459 ;;      Params:         0       0       0       0       0
  3460 ;;      Locals:         0       0       0       0       0
  3461 ;;      Temps:          0       2       0       0       0
  3462 ;;      Totals:         0       2       0       0       0
  3463 ;;Total ram usage:        2 bytes
  3464 ;; Hardware stack levels used: 1
  3465 ;; Hardware stack levels required when called: 4
  3466 ;; This function calls:
  3467 ;;		_Lcd_Cmd
  3468 ;;		_Lcd_Port
  3469 ;; This function is called by:
  3470 ;;		_main
  3471 ;; This function uses a non-reentrant model
  3472 ;;
  3473                           
  3474                           
  3475                           ;psect for function _Lcd_Init
  3476  072E                     _Lcd_Init:
  3477  072E                     l1720:	
  3478                           ;incstack = 0
  3479                           ; Regs used in _Lcd_Init: [wreg+status,2+status,0+pclath+cstack]
  3480                           
  3481                           
  3482                           ;LCD.c: 66:     Lcd_Port(0x00);
  3483  072E  3000               	movlw	0
  3484  072F  120A  158A  2660  120A  118A  	fcall	_Lcd_Port
  3485  0734                     l1722:
  3486                           
  3487                           ;LCD.c: 67:     _delay((unsigned long)((20)*(8000000/4000.0)));
  3488  0734  3034               	movlw	52
  3489  0735  1283               	bcf	3,5	;RP0=0, select bank0
  3490  0736  1303               	bcf	3,6	;RP1=0, select bank0
  3491  0737  00AB               	movwf	??_Lcd_Init+1
  3492  0738  30F1               	movlw	241
  3493  0739  00AA               	movwf	??_Lcd_Init
  3494  073A                     u2077:
  3495  073A  0BAA               	decfsz	??_Lcd_Init,f
  3496  073B  2F3A               	goto	u2077
  3497  073C  0BAB               	decfsz	??_Lcd_Init+1,f
  3498  073D  2F3A               	goto	u2077
  3499  073E                     l1724:
  3500                           
  3501                           ;LCD.c: 68:     Lcd_Cmd(0x03);
  3502  073E  3003               	movlw	3
  3503  073F  120A  158A  2644  120A  118A  	fcall	_Lcd_Cmd
  3504                           
  3505                           ;LCD.c: 69:     _delay((unsigned long)((5)*(8000000/4000.0)));
  3506  0744  300D               	movlw	13
  3507  0745  1283               	bcf	3,5	;RP0=0, select bank0
  3508  0746  1303               	bcf	3,6	;RP1=0, select bank0
  3509  0747  00AB               	movwf	??_Lcd_Init+1
  3510  0748  30FB               	movlw	251
  3511  0749  00AA               	movwf	??_Lcd_Init
  3512  074A                     u2087:
  3513  074A  0BAA               	decfsz	??_Lcd_Init,f
  3514  074B  2F4A               	goto	u2087
  3515  074C  0BAB               	decfsz	??_Lcd_Init+1,f
  3516  074D  2F4A               	goto	u2087
  3517  074E                     l1726:
  3518                           
  3519                           ;LCD.c: 70:     Lcd_Cmd(0x03);
  3520  074E  3003               	movlw	3
  3521  074F  120A  158A  2644  120A  118A  	fcall	_Lcd_Cmd
  3522  0754                     l1728:
  3523                           
  3524                           ;LCD.c: 71:     _delay((unsigned long)((11)*(8000000/4000.0)));
  3525  0754  301D               	movlw	29
  3526  0755  1283               	bcf	3,5	;RP0=0, select bank0
  3527  0756  1303               	bcf	3,6	;RP1=0, select bank0
  3528  0757  00AB               	movwf	??_Lcd_Init+1
  3529  0758  3090               	movlw	144
  3530  0759  00AA               	movwf	??_Lcd_Init
  3531  075A                     u2097:
  3532  075A  0BAA               	decfsz	??_Lcd_Init,f
  3533  075B  2F5A               	goto	u2097
  3534  075C  0BAB               	decfsz	??_Lcd_Init+1,f
  3535  075D  2F5A               	goto	u2097
  3536  075E  0000               	nop
  3537                           
  3538                           ;LCD.c: 72:     Lcd_Cmd(0x03);
  3539  075F  3003               	movlw	3
  3540  0760  120A  158A  2644  120A  118A  	fcall	_Lcd_Cmd
  3541                           
  3542                           ;LCD.c: 74:     Lcd_Cmd(0x02);
  3543  0765  3002               	movlw	2
  3544  0766  120A  158A  2644  120A  118A  	fcall	_Lcd_Cmd
  3545                           
  3546                           ;LCD.c: 75:     Lcd_Cmd(0x02);
  3547  076B  3002               	movlw	2
  3548  076C  120A  158A  2644  120A  118A  	fcall	_Lcd_Cmd
  3549                           
  3550                           ;LCD.c: 76:     Lcd_Cmd(0x08);
  3551  0771  3008               	movlw	8
  3552  0772  120A  158A  2644  120A  118A  	fcall	_Lcd_Cmd
  3553                           
  3554                           ;LCD.c: 77:     Lcd_Cmd(0x00);
  3555  0777  3000               	movlw	0
  3556  0778  120A  158A  2644  120A  118A  	fcall	_Lcd_Cmd
  3557                           
  3558                           ;LCD.c: 78:     Lcd_Cmd(0x0C);
  3559  077D  300C               	movlw	12
  3560  077E  120A  158A  2644  120A  118A  	fcall	_Lcd_Cmd
  3561                           
  3562                           ;LCD.c: 79:     Lcd_Cmd(0x00);
  3563  0783  3000               	movlw	0
  3564  0784  120A  158A  2644  120A  118A  	fcall	_Lcd_Cmd
  3565                           
  3566                           ;LCD.c: 80:     Lcd_Cmd(0x06);
  3567  0789  3006               	movlw	6
  3568  078A  120A  158A  2644  120A  118A  	fcall	_Lcd_Cmd
  3569  078F                     l170:
  3570  078F  0008               	return
  3571  0790                     __end_of_Lcd_Init:
  3572                           
  3573                           	psect	text11
  3574  07E8                     __ptext11:	
  3575 ;; *************** function _Lcd_Clear *****************
  3576 ;; Defined at:
  3577 ;;		line 43 in file "LCD.c"
  3578 ;; Parameters:    Size  Location     Type
  3579 ;;		None
  3580 ;; Auto vars:     Size  Location     Type
  3581 ;;		None
  3582 ;; Return value:  Size  Location     Type
  3583 ;;                  1    wreg      void 
  3584 ;; Registers used:
  3585 ;;		wreg, status,2, status,0, pclath, cstack
  3586 ;; Tracked objects:
  3587 ;;		On entry : 0/0
  3588 ;;		On exit  : 0/0
  3589 ;;		Unchanged: 0/0
  3590 ;; Data sizes:     COMMON   BANK0   BANK1   BANK3   BANK2
  3591 ;;      Params:         0       0       0       0       0
  3592 ;;      Locals:         0       0       0       0       0
  3593 ;;      Temps:          0       0       0       0       0
  3594 ;;      Totals:         0       0       0       0       0
  3595 ;;Total ram usage:        0 bytes
  3596 ;; Hardware stack levels used: 1
  3597 ;; Hardware stack levels required when called: 4
  3598 ;; This function calls:
  3599 ;;		_Lcd_Cmd
  3600 ;; This function is called by:
  3601 ;;		_main
  3602 ;; This function uses a non-reentrant model
  3603 ;;
  3604                           
  3605                           
  3606                           ;psect for function _Lcd_Clear
  3607  07E8                     _Lcd_Clear:
  3608  07E8                     l1730:	
  3609                           ;incstack = 0
  3610                           ; Regs used in _Lcd_Clear: [wreg+status,2+status,0+pclath+cstack]
  3611                           
  3612                           
  3613                           ;LCD.c: 44:     Lcd_Cmd(0);
  3614  07E8  3000               	movlw	0
  3615  07E9  120A  158A  2644  120A  118A  	fcall	_Lcd_Cmd
  3616                           
  3617                           ;LCD.c: 45:     Lcd_Cmd(1);
  3618  07EE  3001               	movlw	1
  3619  07EF  120A  158A  2644  120A  118A  	fcall	_Lcd_Cmd
  3620  07F4                     l161:
  3621  07F4  0008               	return
  3622  07F5                     __end_of_Lcd_Clear:
  3623                           
  3624                           	psect	text12
  3625  0E44                     __ptext12:	
  3626 ;; *************** function _Lcd_Cmd *****************
  3627 ;; Defined at:
  3628 ;;		line 35 in file "LCD.c"
  3629 ;; Parameters:    Size  Location     Type
  3630 ;;  a               1    wreg     unsigned char 
  3631 ;; Auto vars:     Size  Location     Type
  3632 ;;  a               1    9[BANK0 ] unsigned char 
  3633 ;; Return value:  Size  Location     Type
  3634 ;;                  1    wreg      void 
  3635 ;; Registers used:
  3636 ;;		wreg, status,2, status,0, pclath, cstack
  3637 ;; Tracked objects:
  3638 ;;		On entry : 0/0
  3639 ;;		On exit  : 0/0
  3640 ;;		Unchanged: 0/0
  3641 ;; Data sizes:     COMMON   BANK0   BANK1   BANK3   BANK2
  3642 ;;      Params:         0       0       0       0       0
  3643 ;;      Locals:         0       1       0       0       0
  3644 ;;      Temps:          0       2       0       0       0
  3645 ;;      Totals:         0       3       0       0       0
  3646 ;;Total ram usage:        3 bytes
  3647 ;; Hardware stack levels used: 1
  3648 ;; Hardware stack levels required when called: 3
  3649 ;; This function calls:
  3650 ;;		_Lcd_Port
  3651 ;; This function is called by:
  3652 ;;		_Lcd_Clear
  3653 ;;		_Lcd_Set_Cursor
  3654 ;;		_Lcd_Init
  3655 ;;		_Lcd_Shift_Right
  3656 ;;		_Lcd_Shift_Left
  3657 ;; This function uses a non-reentrant model
  3658 ;;
  3659                           
  3660                           
  3661                           ;psect for function _Lcd_Cmd
  3662  0E44                     _Lcd_Cmd:
  3663                           
  3664                           ;incstack = 0
  3665                           ; Regs used in _Lcd_Cmd: [wreg+status,2+status,0+pclath+cstack]
  3666                           ;Lcd_Cmd@a stored from wreg
  3667  0E44  1283               	bcf	3,5	;RP0=0, select bank0
  3668  0E45  1303               	bcf	3,6	;RP1=0, select bank0
  3669  0E46  00A9               	movwf	Lcd_Cmd@a
  3670  0E47                     l1614:
  3671                           
  3672                           ;LCD.c: 36:     RD2 = 0;
  3673  0E47  1108               	bcf	8,2	;volatile
  3674  0E48                     l1616:
  3675                           
  3676                           ;LCD.c: 37:     Lcd_Port(a);
  3677  0E48  0829               	movf	Lcd_Cmd@a,w
  3678  0E49  120A  158A  2660  120A  158A  	fcall	_Lcd_Port
  3679  0E4E                     l1618:
  3680                           
  3681                           ;LCD.c: 38:     RD3 = 1;
  3682  0E4E  1283               	bcf	3,5	;RP0=0, select bank0
  3683  0E4F  1303               	bcf	3,6	;RP1=0, select bank0
  3684  0E50  1588               	bsf	8,3	;volatile
  3685  0E51                     l1620:
  3686                           
  3687                           ;LCD.c: 39:     _delay((unsigned long)((4)*(8000000/4000.0)));
  3688  0E51  300B               	movlw	11
  3689  0E52  1283               	bcf	3,5	;RP0=0, select bank0
  3690  0E53  1303               	bcf	3,6	;RP1=0, select bank0
  3691  0E54  00A8               	movwf	??_Lcd_Cmd+1
  3692  0E55  3061               	movlw	97
  3693  0E56  00A7               	movwf	??_Lcd_Cmd
  3694  0E57                     u2107:
  3695  0E57  0BA7               	decfsz	??_Lcd_Cmd,f
  3696  0E58  2E57               	goto	u2107
  3697  0E59  0BA8               	decfsz	??_Lcd_Cmd+1,f
  3698  0E5A  2E57               	goto	u2107
  3699  0E5B  2E5C               	nop2
  3700  0E5C                     l1622:
  3701                           
  3702                           ;LCD.c: 40:     RD3 = 0;
  3703  0E5C  1283               	bcf	3,5	;RP0=0, select bank0
  3704  0E5D  1303               	bcf	3,6	;RP1=0, select bank0
  3705  0E5E  1188               	bcf	8,3	;volatile
  3706  0E5F                     l158:
  3707  0E5F  0008               	return
  3708  0E60                     __end_of_Lcd_Cmd:
  3709                           
  3710                           	psect	text13
  3711  0E60                     __ptext13:	
  3712 ;; *************** function _Lcd_Port *****************
  3713 ;; Defined at:
  3714 ;;		line 13 in file "LCD.c"
  3715 ;; Parameters:    Size  Location     Type
  3716 ;;  a               1    wreg     unsigned char 
  3717 ;; Auto vars:     Size  Location     Type
  3718 ;;  a               1    6[BANK0 ] unsigned char 
  3719 ;; Return value:  Size  Location     Type
  3720 ;;                  1    wreg      void 
  3721 ;; Registers used:
  3722 ;;		wreg
  3723 ;; Tracked objects:
  3724 ;;		On entry : 0/0
  3725 ;;		On exit  : 0/0
  3726 ;;		Unchanged: 0/0
  3727 ;; Data sizes:     COMMON   BANK0   BANK1   BANK3   BANK2
  3728 ;;      Params:         0       0       0       0       0
  3729 ;;      Locals:         0       1       0       0       0
  3730 ;;      Temps:          0       0       0       0       0
  3731 ;;      Totals:         0       1       0       0       0
  3732 ;;Total ram usage:        1 bytes
  3733 ;; Hardware stack levels used: 1
  3734 ;; Hardware stack levels required when called: 2
  3735 ;; This function calls:
  3736 ;;		Nothing
  3737 ;; This function is called by:
  3738 ;;		_Lcd_Cmd
  3739 ;;		_Lcd_Init
  3740 ;;		_Lcd_Write_Char
  3741 ;; This function uses a non-reentrant model
  3742 ;;
  3743                           
  3744                           
  3745                           ;psect for function _Lcd_Port
  3746  0E60                     _Lcd_Port:
  3747                           
  3748                           ;incstack = 0
  3749                           ; Regs used in _Lcd_Port: [wreg]
  3750                           ;Lcd_Port@a stored from wreg
  3751  0E60  1283               	bcf	3,5	;RP0=0, select bank0
  3752  0E61  1303               	bcf	3,6	;RP1=0, select bank0
  3753  0E62  00A6               	movwf	Lcd_Port@a
  3754  0E63                     l1548:
  3755                           
  3756                           ;LCD.c: 14:     if (a & 1)
  3757  0E63  1C26               	btfss	Lcd_Port@a,0
  3758  0E64  2E66               	goto	u1001
  3759  0E65  2E67               	goto	u1000
  3760  0E66                     u1001:
  3761  0E66  2E69               	goto	l147
  3762  0E67                     u1000:
  3763  0E67                     l1550:
  3764                           
  3765                           ;LCD.c: 15:         RD4 = 1;
  3766  0E67  1608               	bsf	8,4	;volatile
  3767  0E68  2E6A               	goto	l148
  3768  0E69                     l147:	
  3769                           ;LCD.c: 16:     else
  3770                           
  3771                           
  3772                           ;LCD.c: 17:         RD4 = 0;
  3773  0E69  1208               	bcf	8,4	;volatile
  3774  0E6A                     l148:
  3775                           
  3776                           ;LCD.c: 19:     if (a & 2)
  3777  0E6A  1CA6               	btfss	Lcd_Port@a,1
  3778  0E6B  2E6D               	goto	u1011
  3779  0E6C  2E6E               	goto	u1010
  3780  0E6D                     u1011:
  3781  0E6D  2E70               	goto	l149
  3782  0E6E                     u1010:
  3783  0E6E                     l1552:
  3784                           
  3785                           ;LCD.c: 20:         RD5 = 1;
  3786  0E6E  1688               	bsf	8,5	;volatile
  3787  0E6F  2E71               	goto	l150
  3788  0E70                     l149:	
  3789                           ;LCD.c: 21:     else
  3790                           
  3791                           
  3792                           ;LCD.c: 22:         RD5 = 0;
  3793  0E70  1288               	bcf	8,5	;volatile
  3794  0E71                     l150:
  3795                           
  3796                           ;LCD.c: 24:     if (a & 4)
  3797  0E71  1D26               	btfss	Lcd_Port@a,2
  3798  0E72  2E74               	goto	u1021
  3799  0E73  2E75               	goto	u1020
  3800  0E74                     u1021:
  3801  0E74  2E77               	goto	l151
  3802  0E75                     u1020:
  3803  0E75                     l1554:
  3804                           
  3805                           ;LCD.c: 25:         RD6 = 1;
  3806  0E75  1708               	bsf	8,6	;volatile
  3807  0E76  2E78               	goto	l152
  3808  0E77                     l151:	
  3809                           ;LCD.c: 26:     else
  3810                           
  3811                           
  3812                           ;LCD.c: 27:         RD6 = 0;
  3813  0E77  1308               	bcf	8,6	;volatile
  3814  0E78                     l152:
  3815                           
  3816                           ;LCD.c: 29:     if (a & 8)
  3817  0E78  1DA6               	btfss	Lcd_Port@a,3
  3818  0E79  2E7B               	goto	u1031
  3819  0E7A  2E7C               	goto	u1030
  3820  0E7B                     u1031:
  3821  0E7B  2E7E               	goto	l153
  3822  0E7C                     u1030:
  3823  0E7C                     l1556:
  3824                           
  3825                           ;LCD.c: 30:         RD7 = 1;
  3826  0E7C  1788               	bsf	8,7	;volatile
  3827  0E7D  2E7F               	goto	l155
  3828  0E7E                     l153:	
  3829                           ;LCD.c: 31:     else
  3830                           
  3831                           
  3832                           ;LCD.c: 32:         RD7 = 0;
  3833  0E7E  1388               	bcf	8,7	;volatile
  3834  0E7F                     l155:
  3835  0E7F  0008               	return
  3836  0E80                     __end_of_Lcd_Port:
  3837                           
  3838                           	psect	text14
  3839  07F5                     __ptext14:	
  3840 ;; *************** function _I2C_Master_Write *****************
  3841 ;; Defined at:
  3842 ;;		line 72 in file "I2C.c"
  3843 ;; Parameters:    Size  Location     Type
  3844 ;;  d               2    6[BANK0 ] unsigned int 
  3845 ;; Auto vars:     Size  Location     Type
  3846 ;;		None
  3847 ;; Return value:  Size  Location     Type
  3848 ;;                  1    wreg      void 
  3849 ;; Registers used:
  3850 ;;		wreg, status,2, status,0, pclath, cstack
  3851 ;; Tracked objects:
  3852 ;;		On entry : 0/0
  3853 ;;		On exit  : 0/0
  3854 ;;		Unchanged: 0/0
  3855 ;; Data sizes:     COMMON   BANK0   BANK1   BANK3   BANK2
  3856 ;;      Params:         0       2       0       0       0
  3857 ;;      Locals:         0       0       0       0       0
  3858 ;;      Temps:          0       0       0       0       0
  3859 ;;      Totals:         0       2       0       0       0
  3860 ;;Total ram usage:        2 bytes
  3861 ;; Hardware stack levels used: 1
  3862 ;; Hardware stack levels required when called: 3
  3863 ;; This function calls:
  3864 ;;		_I2C_Master_Wait
  3865 ;; This function is called by:
  3866 ;;		_main
  3867 ;; This function uses a non-reentrant model
  3868 ;;
  3869                           
  3870                           
  3871                           ;psect for function _I2C_Master_Write
  3872  07F5                     _I2C_Master_Write:
  3873  07F5                     l1764:	
  3874                           ;incstack = 0
  3875                           ; Regs used in _I2C_Master_Write: [wreg+status,2+status,0+pclath+cstack]
  3876                           
  3877                           
  3878                           ;I2C.c: 72: void I2C_Master_Write(unsigned d);I2C.c: 73: {;I2C.c: 74:     I2C_Master_Wai
      +                          t();
  3879  07F5  120A  158A  261E  120A  118A  	fcall	_I2C_Master_Wait
  3880  07FA                     l1766:
  3881                           
  3882                           ;I2C.c: 75:     SSPBUF = d;
  3883  07FA  1283               	bcf	3,5	;RP0=0, select bank0
  3884  07FB  1303               	bcf	3,6	;RP1=0, select bank0
  3885  07FC  0826               	movf	I2C_Master_Write@d,w
  3886  07FD  0093               	movwf	19	;volatile
  3887  07FE                     l232:
  3888  07FE  0008               	return
  3889  07FF                     __end_of_I2C_Master_Write:
  3890                           
  3891                           	psect	text15
  3892  0E15                     __ptext15:	
  3893 ;; *************** function _I2C_Master_Stop *****************
  3894 ;; Defined at:
  3895 ;;		line 61 in file "I2C.c"
  3896 ;; Parameters:    Size  Location     Type
  3897 ;;		None
  3898 ;; Auto vars:     Size  Location     Type
  3899 ;;		None
  3900 ;; Return value:  Size  Location     Type
  3901 ;;                  1    wreg      void 
  3902 ;; Registers used:
  3903 ;;		wreg, status,2, status,0, pclath, cstack
  3904 ;; Tracked objects:
  3905 ;;		On entry : 0/0
  3906 ;;		On exit  : 0/0
  3907 ;;		Unchanged: 0/0
  3908 ;; Data sizes:     COMMON   BANK0   BANK1   BANK3   BANK2
  3909 ;;      Params:         0       0       0       0       0
  3910 ;;      Locals:         0       0       0       0       0
  3911 ;;      Temps:          0       0       0       0       0
  3912 ;;      Totals:         0       0       0       0       0
  3913 ;;Total ram usage:        0 bytes
  3914 ;; Hardware stack levels used: 1
  3915 ;; Hardware stack levels required when called: 3
  3916 ;; This function calls:
  3917 ;;		_I2C_Master_Wait
  3918 ;; This function is called by:
  3919 ;;		_main
  3920 ;; This function uses a non-reentrant model
  3921 ;;
  3922                           
  3923                           
  3924                           ;psect for function _I2C_Master_Stop
  3925  0E15                     _I2C_Master_Stop:
  3926  0E15                     l1768:	
  3927                           ;incstack = 0
  3928                           ; Regs used in _I2C_Master_Stop: [wreg+status,2+status,0+pclath+cstack]
  3929                           
  3930                           
  3931                           ;I2C.c: 63:     I2C_Master_Wait();
  3932  0E15  120A  158A  261E  120A  158A  	fcall	_I2C_Master_Wait
  3933  0E1A                     l1770:
  3934                           
  3935                           ;I2C.c: 64:     SSPCON2bits.PEN = 1;
  3936  0E1A  1683               	bsf	3,5	;RP0=1, select bank1
  3937  0E1B  1303               	bcf	3,6	;RP1=0, select bank1
  3938  0E1C  1511               	bsf	17,2	;volatile
  3939  0E1D                     l229:
  3940  0E1D  0008               	return
  3941  0E1E                     __end_of_I2C_Master_Stop:
  3942                           
  3943                           	psect	text16
  3944  0E0C                     __ptext16:	
  3945 ;; *************** function _I2C_Master_Start *****************
  3946 ;; Defined at:
  3947 ;;		line 43 in file "I2C.c"
  3948 ;; Parameters:    Size  Location     Type
  3949 ;;		None
  3950 ;; Auto vars:     Size  Location     Type
  3951 ;;		None
  3952 ;; Return value:  Size  Location     Type
  3953 ;;                  1    wreg      void 
  3954 ;; Registers used:
  3955 ;;		wreg, status,2, status,0, pclath, cstack
  3956 ;; Tracked objects:
  3957 ;;		On entry : 0/0
  3958 ;;		On exit  : 0/0
  3959 ;;		Unchanged: 0/0
  3960 ;; Data sizes:     COMMON   BANK0   BANK1   BANK3   BANK2
  3961 ;;      Params:         0       0       0       0       0
  3962 ;;      Locals:         0       0       0       0       0
  3963 ;;      Temps:          0       0       0       0       0
  3964 ;;      Totals:         0       0       0       0       0
  3965 ;;Total ram usage:        0 bytes
  3966 ;; Hardware stack levels used: 1
  3967 ;; Hardware stack levels required when called: 3
  3968 ;; This function calls:
  3969 ;;		_I2C_Master_Wait
  3970 ;; This function is called by:
  3971 ;;		_main
  3972 ;; This function uses a non-reentrant model
  3973 ;;
  3974                           
  3975                           
  3976                           ;psect for function _I2C_Master_Start
  3977  0E0C                     _I2C_Master_Start:
  3978  0E0C                     l1760:	
  3979                           ;incstack = 0
  3980                           ; Regs used in _I2C_Master_Start: [wreg+status,2+status,0+pclath+cstack]
  3981                           
  3982                           
  3983                           ;I2C.c: 45:     I2C_Master_Wait();
  3984  0E0C  120A  158A  261E  120A  158A  	fcall	_I2C_Master_Wait
  3985  0E11                     l1762:
  3986                           
  3987                           ;I2C.c: 46:     SSPCON2bits.SEN = 1;
  3988  0E11  1683               	bsf	3,5	;RP0=1, select bank1
  3989  0E12  1303               	bcf	3,6	;RP1=0, select bank1
  3990  0E13  1411               	bsf	17,0	;volatile
  3991  0E14                     l223:
  3992  0E14  0008               	return
  3993  0E15                     __end_of_I2C_Master_Start:
  3994                           
  3995                           	psect	text17
  3996  0ED0                     __ptext17:	
  3997 ;; *************** function _I2C_Master_Read *****************
  3998 ;; Defined at:
  3999 ;;		line 82 in file "I2C.c"
  4000 ;; Parameters:    Size  Location     Type
  4001 ;;  a               2    6[BANK0 ] unsigned short 
  4002 ;; Auto vars:     Size  Location     Type
  4003 ;;  temp            2   10[BANK0 ] unsigned short 
  4004 ;; Return value:  Size  Location     Type
  4005 ;;                  2    6[BANK0 ] unsigned short 
  4006 ;; Registers used:
  4007 ;;		wreg, status,2, status,0, pclath, cstack
  4008 ;; Tracked objects:
  4009 ;;		On entry : 0/0
  4010 ;;		On exit  : 0/0
  4011 ;;		Unchanged: 0/0
  4012 ;; Data sizes:     COMMON   BANK0   BANK1   BANK3   BANK2
  4013 ;;      Params:         0       2       0       0       0
  4014 ;;      Locals:         0       2       0       0       0
  4015 ;;      Temps:          0       2       0       0       0
  4016 ;;      Totals:         0       6       0       0       0
  4017 ;;Total ram usage:        6 bytes
  4018 ;; Hardware stack levels used: 1
  4019 ;; Hardware stack levels required when called: 3
  4020 ;; This function calls:
  4021 ;;		_I2C_Master_Wait
  4022 ;; This function is called by:
  4023 ;;		_main
  4024 ;; This function uses a non-reentrant model
  4025 ;;
  4026                           
  4027                           
  4028                           ;psect for function _I2C_Master_Read
  4029  0ED0                     _I2C_Master_Read:
  4030  0ED0                     l1772:	
  4031                           ;incstack = 0
  4032                           ; Regs used in _I2C_Master_Read: [wreg+status,2+status,0+pclath+cstack]
  4033                           
  4034                           
  4035                           ;I2C.c: 82: unsigned short I2C_Master_Read(unsigned short a);I2C.c: 83: {;I2C.c: 84:    
      +                           unsigned short temp;;I2C.c: 85:     I2C_Master_Wait();
  4036  0ED0  120A  158A  261E  120A  158A  	fcall	_I2C_Master_Wait
  4037  0ED5                     l1774:
  4038                           
  4039                           ;I2C.c: 86:     SSPCON2bits.RCEN = 1;
  4040  0ED5  1683               	bsf	3,5	;RP0=1, select bank1
  4041  0ED6  1303               	bcf	3,6	;RP1=0, select bank1
  4042  0ED7  1591               	bsf	17,3	;volatile
  4043                           
  4044                           ;I2C.c: 87:     I2C_Master_Wait();
  4045  0ED8  120A  158A  261E  120A  158A  	fcall	_I2C_Master_Wait
  4046  0EDD                     l1776:
  4047                           
  4048                           ;I2C.c: 88:     temp = SSPBUF;
  4049  0EDD  1283               	bcf	3,5	;RP0=0, select bank0
  4050  0EDE  1303               	bcf	3,6	;RP1=0, select bank0
  4051  0EDF  0813               	movf	19,w	;volatile
  4052  0EE0  00A8               	movwf	??_I2C_Master_Read
  4053  0EE1  01A9               	clrf	??_I2C_Master_Read+1
  4054  0EE2  0828               	movf	??_I2C_Master_Read,w
  4055  0EE3  00AA               	movwf	I2C_Master_Read@temp
  4056  0EE4  0829               	movf	??_I2C_Master_Read+1,w
  4057  0EE5  00AB               	movwf	I2C_Master_Read@temp+1
  4058  0EE6                     l1778:
  4059                           
  4060                           ;I2C.c: 89:     I2C_Master_Wait();
  4061  0EE6  120A  158A  261E  120A  158A  	fcall	_I2C_Master_Wait
  4062  0EEB                     l1780:
  4063                           
  4064                           ;I2C.c: 90:     if(a == 1){
  4065  0EEB  1283               	bcf	3,5	;RP0=0, select bank0
  4066  0EEC  1303               	bcf	3,6	;RP1=0, select bank0
  4067  0EED  0326               	decf	I2C_Master_Read@a,w
  4068  0EEE  0427               	iorwf	I2C_Master_Read@a+1,w
  4069  0EEF  1D03               	btfss	3,2
  4070  0EF0  2EF2               	goto	u1311
  4071  0EF1  2EF3               	goto	u1310
  4072  0EF2                     u1311:
  4073  0EF2  2EF7               	goto	l235
  4074  0EF3                     u1310:
  4075  0EF3                     l1782:
  4076                           
  4077                           ;I2C.c: 91:         SSPCON2bits.ACKDT = 0;
  4078  0EF3  1683               	bsf	3,5	;RP0=1, select bank1
  4079  0EF4  1303               	bcf	3,6	;RP1=0, select bank1
  4080  0EF5  1291               	bcf	17,5	;volatile
  4081                           
  4082                           ;I2C.c: 92:     }else{
  4083  0EF6  2EFA               	goto	l236
  4084  0EF7                     l235:
  4085                           
  4086                           ;I2C.c: 93:         SSPCON2bits.ACKDT = 1;
  4087  0EF7  1683               	bsf	3,5	;RP0=1, select bank1
  4088  0EF8  1303               	bcf	3,6	;RP1=0, select bank1
  4089  0EF9  1691               	bsf	17,5	;volatile
  4090  0EFA                     l236:	
  4091                           ;I2C.c: 94:     }
  4092                           
  4093                           
  4094                           ;I2C.c: 95:     SSPCON2bits.ACKEN = 1;
  4095  0EFA  1611               	bsf	17,4	;volatile
  4096  0EFB                     l1784:
  4097                           
  4098                           ;I2C.c: 96:     return temp;
  4099  0EFB  1283               	bcf	3,5	;RP0=0, select bank0
  4100  0EFC  1303               	bcf	3,6	;RP1=0, select bank0
  4101  0EFD  082B               	movf	I2C_Master_Read@temp+1,w
  4102  0EFE  00A7               	movwf	?_I2C_Master_Read+1
  4103  0EFF  082A               	movf	I2C_Master_Read@temp,w
  4104  0F00  00A6               	movwf	?_I2C_Master_Read
  4105  0F01                     l237:
  4106  0F01  0008               	return
  4107  0F02                     __end_of_I2C_Master_Read:
  4108                           
  4109                           	psect	text18
  4110  0E1E                     __ptext18:	
  4111 ;; *************** function _I2C_Master_Wait *****************
  4112 ;; Defined at:
  4113 ;;		line 35 in file "I2C.c"
  4114 ;; Parameters:    Size  Location     Type
  4115 ;;		None
  4116 ;; Auto vars:     Size  Location     Type
  4117 ;;		None
  4118 ;; Return value:  Size  Location     Type
  4119 ;;                  1    wreg      void 
  4120 ;; Registers used:
  4121 ;;		wreg, status,2
  4122 ;; Tracked objects:
  4123 ;;		On entry : 0/0
  4124 ;;		On exit  : 0/0
  4125 ;;		Unchanged: 0/0
  4126 ;; Data sizes:     COMMON   BANK0   BANK1   BANK3   BANK2
  4127 ;;      Params:         0       0       0       0       0
  4128 ;;      Locals:         0       0       0       0       0
  4129 ;;      Temps:          0       0       0       0       0
  4130 ;;      Totals:         0       0       0       0       0
  4131 ;;Total ram usage:        0 bytes
  4132 ;; Hardware stack levels used: 1
  4133 ;; Hardware stack levels required when called: 2
  4134 ;; This function calls:
  4135 ;;		Nothing
  4136 ;; This function is called by:
  4137 ;;		_I2C_Master_Start
  4138 ;;		_I2C_Master_Stop
  4139 ;;		_I2C_Master_Write
  4140 ;;		_I2C_Master_Read
  4141 ;;		_I2C_Master_RepeatedStart
  4142 ;; This function uses a non-reentrant model
  4143 ;;
  4144                           
  4145                           
  4146                           ;psect for function _I2C_Master_Wait
  4147  0E1E                     _I2C_Master_Wait:
  4148  0E1E                     l1624:	
  4149                           ;incstack = 0
  4150                           ; Regs used in _I2C_Master_Wait: [wreg+status,2]
  4151                           
  4152  0E1E                     l217:	
  4153                           ;I2C.c: 37:     while ((SSPSTAT & 0x04) || (SSPCON2 & 0x1F));
  4154                           
  4155  0E1E  1683               	bsf	3,5	;RP0=1, select bank1
  4156  0E1F  1303               	bcf	3,6	;RP1=0, select bank1
  4157  0E20  1914               	btfsc	20,2	;volatile
  4158  0E21  2E23               	goto	u1131
  4159  0E22  2E24               	goto	u1130
  4160  0E23                     u1131:
  4161  0E23  2E1E               	goto	l217
  4162  0E24                     u1130:
  4163  0E24                     l1626:
  4164  0E24  0811               	movf	17,w	;volatile
  4165  0E25  391F               	andlw	31
  4166  0E26  1D03               	btfss	3,2
  4167  0E27  2E29               	goto	u1141
  4168  0E28  2E2A               	goto	u1140
  4169  0E29                     u1141:
  4170  0E29  2E1E               	goto	l217
  4171  0E2A                     u1140:
  4172  0E2A                     l220:
  4173  0E2A  0008               	return
  4174  0E2B                     __end_of_I2C_Master_Wait:
  4175                           
  4176                           	psect	text19
  4177  05EB                     __ptext19:	
  4178 ;; *************** function _Decimal *****************
  4179 ;; Defined at:
  4180 ;;		line 238 in file "P1 Master.c"
  4181 ;; Parameters:    Size  Location     Type
  4182 ;;  variable        2   14[BANK0 ] unsigned int 
  4183 ;; Auto vars:     Size  Location     Type
  4184 ;;  valor           2   18[BANK0 ] unsigned int 
  4185 ;; Return value:  Size  Location     Type
  4186 ;;                  1    wreg      void 
  4187 ;; Registers used:
  4188 ;;		wreg, status,2, status,0, pclath, cstack
  4189 ;; Tracked objects:
  4190 ;;		On entry : 0/0
  4191 ;;		On exit  : 0/0
  4192 ;;		Unchanged: 0/0
  4193 ;; Data sizes:     COMMON   BANK0   BANK1   BANK3   BANK2
  4194 ;;      Params:         0       2       0       0       0
  4195 ;;      Locals:         0       2       0       0       0
  4196 ;;      Temps:          0       2       0       0       0
  4197 ;;      Totals:         0       6       0       0       0
  4198 ;;Total ram usage:        6 bytes
  4199 ;; Hardware stack levels used: 1
  4200 ;; Hardware stack levels required when called: 3
  4201 ;; This function calls:
  4202 ;;		___lwdiv
  4203 ;;		___wmul
  4204 ;; This function is called by:
  4205 ;;		_main
  4206 ;; This function uses a non-reentrant model
  4207 ;;
  4208                           
  4209                           
  4210                           ;psect for function _Decimal
  4211  05EB                     _Decimal:
  4212  05EB                     l1788:	
  4213                           ;incstack = 0
  4214                           ; Regs used in _Decimal: [wreg+status,2+status,0+pclath+cstack]
  4215                           
  4216                           
  4217                           ;P1 Master.c: 239:     uint16_t valor;;P1 Master.c: 240:     valor = variable;
  4218  05EB  1283               	bcf	3,5	;RP0=0, select bank0
  4219  05EC  1303               	bcf	3,6	;RP1=0, select bank0
  4220  05ED  082F               	movf	Decimal@variable+1,w
  4221  05EE  00B3               	movwf	Decimal@valor+1
  4222  05EF  082E               	movf	Decimal@variable,w
  4223  05F0  00B2               	movwf	Decimal@valor
  4224  05F1                     l1790:
  4225                           
  4226                           ;P1 Master.c: 241:     Centena = (valor/100) ;
  4227  05F1  3064               	movlw	100
  4228  05F2  00A6               	movwf	___lwdiv@divisor
  4229  05F3  3000               	movlw	0
  4230  05F4  00A7               	movwf	___lwdiv@divisor+1
  4231  05F5  0833               	movf	Decimal@valor+1,w
  4232  05F6  00A9               	movwf	___lwdiv@dividend+1
  4233  05F7  0832               	movf	Decimal@valor,w
  4234  05F8  00A8               	movwf	___lwdiv@dividend
  4235  05F9  120A  158A  27BA  120A  118A  	fcall	___lwdiv
  4236  05FE  1283               	bcf	3,5	;RP0=0, select bank0
  4237  05FF  1303               	bcf	3,6	;RP1=0, select bank0
  4238  0600  0826               	movf	?___lwdiv,w
  4239  0601  00B0               	movwf	??_Decimal
  4240  0602  0830               	movf	??_Decimal,w
  4241  0603  00DE               	movwf	_Centena
  4242  0604                     l1792:
  4243                           
  4244                           ;P1 Master.c: 242:     valor = (valor - (Centena*100));
  4245  0604  085E               	movf	_Centena,w
  4246  0605  00B0               	movwf	??_Decimal
  4247  0606  01B1               	clrf	??_Decimal+1
  4248  0607  0830               	movf	??_Decimal,w
  4249  0608  00A6               	movwf	___wmul@multiplier
  4250  0609  0831               	movf	??_Decimal+1,w
  4251  060A  00A7               	movwf	___wmul@multiplier+1
  4252  060B  309C               	movlw	156
  4253  060C  00A8               	movwf	___wmul@multiplicand
  4254  060D  30FF               	movlw	255
  4255  060E  00A9               	movwf	___wmul@multiplicand+1
  4256  060F  120A  158A  2680  120A  118A  	fcall	___wmul
  4257  0614  1283               	bcf	3,5	;RP0=0, select bank0
  4258  0615  1303               	bcf	3,6	;RP1=0, select bank0
  4259  0616  0832               	movf	Decimal@valor,w
  4260  0617  0726               	addwf	?___wmul,w
  4261  0618  00B2               	movwf	Decimal@valor
  4262  0619  0833               	movf	Decimal@valor+1,w
  4263  061A  1803               	skipnc
  4264  061B  0A33               	incf	Decimal@valor+1,w
  4265  061C  0727               	addwf	?___wmul+1,w
  4266  061D  00B3               	movwf	Decimal@valor+1
  4267  061E                     l1794:
  4268                           
  4269                           ;P1 Master.c: 243:     Decena = (valor/10);
  4270  061E  300A               	movlw	10
  4271  061F  00A6               	movwf	___lwdiv@divisor
  4272  0620  3000               	movlw	0
  4273  0621  00A7               	movwf	___lwdiv@divisor+1
  4274  0622  0833               	movf	Decimal@valor+1,w
  4275  0623  00A9               	movwf	___lwdiv@dividend+1
  4276  0624  0832               	movf	Decimal@valor,w
  4277  0625  00A8               	movwf	___lwdiv@dividend
  4278  0626  120A  158A  27BA  120A  118A  	fcall	___lwdiv
  4279  062B  1283               	bcf	3,5	;RP0=0, select bank0
  4280  062C  1303               	bcf	3,6	;RP1=0, select bank0
  4281  062D  0826               	movf	?___lwdiv,w
  4282  062E  00B0               	movwf	??_Decimal
  4283  062F  0830               	movf	??_Decimal,w
  4284  0630  00DF               	movwf	_Decena
  4285  0631                     l1796:
  4286                           
  4287                           ;P1 Master.c: 244:     valor = (valor - (Decena*10));
  4288  0631  085F               	movf	_Decena,w
  4289  0632  00B0               	movwf	??_Decimal
  4290  0633  01B1               	clrf	??_Decimal+1
  4291  0634  0830               	movf	??_Decimal,w
  4292  0635  00A6               	movwf	___wmul@multiplier
  4293  0636  0831               	movf	??_Decimal+1,w
  4294  0637  00A7               	movwf	___wmul@multiplier+1
  4295  0638  30F6               	movlw	246
  4296  0639  00A8               	movwf	___wmul@multiplicand
  4297  063A  30FF               	movlw	255
  4298  063B  00A9               	movwf	___wmul@multiplicand+1
  4299  063C  120A  158A  2680  120A  118A  	fcall	___wmul
  4300  0641  1283               	bcf	3,5	;RP0=0, select bank0
  4301  0642  1303               	bcf	3,6	;RP1=0, select bank0
  4302  0643  0832               	movf	Decimal@valor,w
  4303  0644  0726               	addwf	?___wmul,w
  4304  0645  00B2               	movwf	Decimal@valor
  4305  0646  0833               	movf	Decimal@valor+1,w
  4306  0647  1803               	skipnc
  4307  0648  0A33               	incf	Decimal@valor+1,w
  4308  0649  0727               	addwf	?___wmul+1,w
  4309  064A  00B3               	movwf	Decimal@valor+1
  4310                           
  4311                           ;P1 Master.c: 245:     Unidad = (valor);
  4312  064B  0832               	movf	Decimal@valor,w
  4313  064C  00B0               	movwf	??_Decimal
  4314  064D  0830               	movf	??_Decimal,w
  4315  064E  00E0               	movwf	_Unidad
  4316  064F                     l1798:
  4317                           
  4318                           ;P1 Master.c: 247:     Unidad = Unidad + 48;
  4319  064F  0860               	movf	_Unidad,w
  4320  0650  3E30               	addlw	48
  4321  0651  00B0               	movwf	??_Decimal
  4322  0652  0830               	movf	??_Decimal,w
  4323  0653  00E0               	movwf	_Unidad
  4324  0654                     l1800:
  4325                           
  4326                           ;P1 Master.c: 248:     Decena = Decena + 48;
  4327  0654  085F               	movf	_Decena,w
  4328  0655  3E30               	addlw	48
  4329  0656  00B0               	movwf	??_Decimal
  4330  0657  0830               	movf	??_Decimal,w
  4331  0658  00DF               	movwf	_Decena
  4332  0659                     l1802:
  4333                           
  4334                           ;P1 Master.c: 249:     Centena = Centena + 48;
  4335  0659  085E               	movf	_Centena,w
  4336  065A  3E30               	addlw	48
  4337  065B  00B0               	movwf	??_Decimal
  4338  065C  0830               	movf	??_Decimal,w
  4339  065D  00DE               	movwf	_Centena
  4340  065E                     l130:
  4341  065E  0008               	return
  4342  065F                     __end_of_Decimal:
  4343                           
  4344                           	psect	text20
  4345  0E80                     __ptext20:	
  4346 ;; *************** function ___wmul *****************
  4347 ;; Defined at:
  4348 ;;		line 15 in file "C:\Program Files\Microchip\xc8\v2.32\pic\sources\c90\common\Umul16.c"
  4349 ;; Parameters:    Size  Location     Type
  4350 ;;  multiplier      2    6[BANK0 ] unsigned int 
  4351 ;;  multiplicand    2    8[BANK0 ] unsigned int 
  4352 ;; Auto vars:     Size  Location     Type
  4353 ;;  product         2   10[BANK0 ] unsigned int 
  4354 ;; Return value:  Size  Location     Type
  4355 ;;                  2    6[BANK0 ] unsigned int 
  4356 ;; Registers used:
  4357 ;;		wreg, status,2, status,0
  4358 ;; Tracked objects:
  4359 ;;		On entry : 0/0
  4360 ;;		On exit  : 0/0
  4361 ;;		Unchanged: 0/0
  4362 ;; Data sizes:     COMMON   BANK0   BANK1   BANK3   BANK2
  4363 ;;      Params:         0       4       0       0       0
  4364 ;;      Locals:         0       2       0       0       0
  4365 ;;      Temps:          0       0       0       0       0
  4366 ;;      Totals:         0       6       0       0       0
  4367 ;;Total ram usage:        6 bytes
  4368 ;; Hardware stack levels used: 1
  4369 ;; Hardware stack levels required when called: 2
  4370 ;; This function calls:
  4371 ;;		Nothing
  4372 ;; This function is called by:
  4373 ;;		_Decimal
  4374 ;; This function uses a non-reentrant model
  4375 ;;
  4376                           
  4377                           
  4378                           ;psect for function ___wmul
  4379  0E80                     ___wmul:
  4380  0E80                     l1628:	
  4381                           ;incstack = 0
  4382                           ; Regs used in ___wmul: [wreg+status,2+status,0]
  4383                           
  4384  0E80  1283               	bcf	3,5	;RP0=0, select bank0
  4385  0E81  1303               	bcf	3,6	;RP1=0, select bank0
  4386  0E82  01AA               	clrf	___wmul@product
  4387  0E83  01AB               	clrf	___wmul@product+1
  4388  0E84                     l1630:
  4389  0E84  1C26               	btfss	___wmul@multiplier,0
  4390  0E85  2E87               	goto	u1151
  4391  0E86  2E88               	goto	u1150
  4392  0E87                     u1151:
  4393  0E87  2E8E               	goto	l326
  4394  0E88                     u1150:
  4395  0E88                     l1632:
  4396  0E88  0828               	movf	___wmul@multiplicand,w
  4397  0E89  07AA               	addwf	___wmul@product,f
  4398  0E8A  1803               	skipnc
  4399  0E8B  0AAB               	incf	___wmul@product+1,f
  4400  0E8C  0829               	movf	___wmul@multiplicand+1,w
  4401  0E8D  07AB               	addwf	___wmul@product+1,f
  4402  0E8E                     l326:
  4403  0E8E  3001               	movlw	1
  4404  0E8F                     u1165:
  4405  0E8F  1003               	clrc
  4406  0E90  0DA8               	rlf	___wmul@multiplicand,f
  4407  0E91  0DA9               	rlf	___wmul@multiplicand+1,f
  4408  0E92  3EFF               	addlw	-1
  4409  0E93  1D03               	skipz
  4410  0E94  2E8F               	goto	u1165
  4411  0E95                     l1634:
  4412  0E95  3001               	movlw	1
  4413  0E96                     u1175:
  4414  0E96  1003               	clrc
  4415  0E97  0CA7               	rrf	___wmul@multiplier+1,f
  4416  0E98  0CA6               	rrf	___wmul@multiplier,f
  4417  0E99  3EFF               	addlw	-1
  4418  0E9A  1D03               	skipz
  4419  0E9B  2E96               	goto	u1175
  4420  0E9C                     l1636:
  4421  0E9C  0826               	movf	___wmul@multiplier,w
  4422  0E9D  0427               	iorwf	___wmul@multiplier+1,w
  4423  0E9E  1D03               	btfss	3,2
  4424  0E9F  2EA1               	goto	u1181
  4425  0EA0  2EA2               	goto	u1180
  4426  0EA1                     u1181:
  4427  0EA1  2E84               	goto	l1630
  4428  0EA2                     u1180:
  4429  0EA2                     l1638:
  4430  0EA2  082B               	movf	___wmul@product+1,w
  4431  0EA3  00A7               	movwf	?___wmul+1
  4432  0EA4  082A               	movf	___wmul@product,w
  4433  0EA5  00A6               	movwf	?___wmul
  4434  0EA6                     l328:
  4435  0EA6  0008               	return
  4436  0EA7                     __end_of___wmul:
  4437                           
  4438                           	psect	text21
  4439  0FBA                     __ptext21:	
  4440 ;; *************** function ___lwdiv *****************
  4441 ;; Defined at:
  4442 ;;		line 5 in file "C:\Program Files\Microchip\xc8\v2.32\pic\sources\c90\common\lwdiv.c"
  4443 ;; Parameters:    Size  Location     Type
  4444 ;;  divisor         2    6[BANK0 ] unsigned int 
  4445 ;;  dividend        2    8[BANK0 ] unsigned int 
  4446 ;; Auto vars:     Size  Location     Type
  4447 ;;  quotient        2   11[BANK0 ] unsigned int 
  4448 ;;  counter         1   13[BANK0 ] unsigned char 
  4449 ;; Return value:  Size  Location     Type
  4450 ;;                  2    6[BANK0 ] unsigned int 
  4451 ;; Registers used:
  4452 ;;		wreg, status,2, status,0
  4453 ;; Tracked objects:
  4454 ;;		On entry : 0/0
  4455 ;;		On exit  : 0/0
  4456 ;;		Unchanged: 0/0
  4457 ;; Data sizes:     COMMON   BANK0   BANK1   BANK3   BANK2
  4458 ;;      Params:         0       4       0       0       0
  4459 ;;      Locals:         0       3       0       0       0
  4460 ;;      Temps:          0       1       0       0       0
  4461 ;;      Totals:         0       8       0       0       0
  4462 ;;Total ram usage:        8 bytes
  4463 ;; Hardware stack levels used: 1
  4464 ;; Hardware stack levels required when called: 2
  4465 ;; This function calls:
  4466 ;;		Nothing
  4467 ;; This function is called by:
  4468 ;;		_Decimal
  4469 ;; This function uses a non-reentrant model
  4470 ;;
  4471                           
  4472                           
  4473                           ;psect for function ___lwdiv
  4474  0FBA                     ___lwdiv:
  4475  0FBA                     l1642:	
  4476                           ;incstack = 0
  4477                           ; Regs used in ___lwdiv: [wreg+status,2+status,0]
  4478                           
  4479  0FBA  1283               	bcf	3,5	;RP0=0, select bank0
  4480  0FBB  1303               	bcf	3,6	;RP1=0, select bank0
  4481  0FBC  01AB               	clrf	___lwdiv@quotient
  4482  0FBD  01AC               	clrf	___lwdiv@quotient+1
  4483  0FBE                     l1644:
  4484  0FBE  0826               	movf	___lwdiv@divisor,w
  4485  0FBF  0427               	iorwf	___lwdiv@divisor+1,w
  4486  0FC0  1903               	btfsc	3,2
  4487  0FC1  2FC3               	goto	u1191
  4488  0FC2  2FC4               	goto	u1190
  4489  0FC3                     u1191:
  4490  0FC3  2FFB               	goto	l1664
  4491  0FC4                     u1190:
  4492  0FC4                     l1646:
  4493  0FC4  01AD               	clrf	___lwdiv@counter
  4494  0FC5  0AAD               	incf	___lwdiv@counter,f
  4495  0FC6  2FD2               	goto	l1652
  4496  0FC7                     l1648:
  4497  0FC7  3001               	movlw	1
  4498  0FC8                     u1205:
  4499  0FC8  1003               	clrc
  4500  0FC9  0DA6               	rlf	___lwdiv@divisor,f
  4501  0FCA  0DA7               	rlf	___lwdiv@divisor+1,f
  4502  0FCB  3EFF               	addlw	-1
  4503  0FCC  1D03               	skipz
  4504  0FCD  2FC8               	goto	u1205
  4505  0FCE                     l1650:
  4506  0FCE  3001               	movlw	1
  4507  0FCF  00AA               	movwf	??___lwdiv
  4508  0FD0  082A               	movf	??___lwdiv,w
  4509  0FD1  07AD               	addwf	___lwdiv@counter,f
  4510  0FD2                     l1652:
  4511  0FD2  1FA7               	btfss	___lwdiv@divisor+1,7
  4512  0FD3  2FD5               	goto	u1211
  4513  0FD4  2FD6               	goto	u1210
  4514  0FD5                     u1211:
  4515  0FD5  2FC7               	goto	l1648
  4516  0FD6                     u1210:
  4517  0FD6                     l1654:
  4518  0FD6  3001               	movlw	1
  4519  0FD7                     u1225:
  4520  0FD7  1003               	clrc
  4521  0FD8  0DAB               	rlf	___lwdiv@quotient,f
  4522  0FD9  0DAC               	rlf	___lwdiv@quotient+1,f
  4523  0FDA  3EFF               	addlw	-1
  4524  0FDB  1D03               	skipz
  4525  0FDC  2FD7               	goto	u1225
  4526  0FDD  0827               	movf	___lwdiv@divisor+1,w
  4527  0FDE  0229               	subwf	___lwdiv@dividend+1,w
  4528  0FDF  1D03               	skipz
  4529  0FE0  2FE3               	goto	u1235
  4530  0FE1  0826               	movf	___lwdiv@divisor,w
  4531  0FE2  0228               	subwf	___lwdiv@dividend,w
  4532  0FE3                     u1235:
  4533  0FE3  1C03               	skipc
  4534  0FE4  2FE6               	goto	u1231
  4535  0FE5  2FE7               	goto	u1230
  4536  0FE6                     u1231:
  4537  0FE6  2FEE               	goto	l1660
  4538  0FE7                     u1230:
  4539  0FE7                     l1656:
  4540  0FE7  0826               	movf	___lwdiv@divisor,w
  4541  0FE8  02A8               	subwf	___lwdiv@dividend,f
  4542  0FE9  0827               	movf	___lwdiv@divisor+1,w
  4543  0FEA  1C03               	skipc
  4544  0FEB  03A9               	decf	___lwdiv@dividend+1,f
  4545  0FEC  02A9               	subwf	___lwdiv@dividend+1,f
  4546  0FED                     l1658:
  4547  0FED  142B               	bsf	___lwdiv@quotient,0
  4548  0FEE                     l1660:
  4549  0FEE  3001               	movlw	1
  4550  0FEF                     u1245:
  4551  0FEF  1003               	clrc
  4552  0FF0  0CA7               	rrf	___lwdiv@divisor+1,f
  4553  0FF1  0CA6               	rrf	___lwdiv@divisor,f
  4554  0FF2  3EFF               	addlw	-1
  4555  0FF3  1D03               	skipz
  4556  0FF4  2FEF               	goto	u1245
  4557  0FF5                     l1662:
  4558  0FF5  3001               	movlw	1
  4559  0FF6  02AD               	subwf	___lwdiv@counter,f
  4560  0FF7  1D03               	btfss	3,2
  4561  0FF8  2FFA               	goto	u1251
  4562  0FF9  2FFB               	goto	u1250
  4563  0FFA                     u1251:
  4564  0FFA  2FD6               	goto	l1654
  4565  0FFB                     u1250:
  4566  0FFB                     l1664:
  4567  0FFB  082C               	movf	___lwdiv@quotient+1,w
  4568  0FFC  00A7               	movwf	?___lwdiv+1
  4569  0FFD  082B               	movf	___lwdiv@quotient,w
  4570  0FFE  00A6               	movwf	?___lwdiv
  4571  0FFF                     l598:
  4572  0FFF  0008               	return
  4573  1000                     __end_of___lwdiv:
  4574                           
  4575                           	psect	text22
  4576  04F1                     __ptext22:	
  4577 ;; *************** function _isr *****************
  4578 ;; Defined at:
  4579 ;;		line 159 in file "P1 Master.c"
  4580 ;; Parameters:    Size  Location     Type
  4581 ;;		None
  4582 ;; Auto vars:     Size  Location     Type
  4583 ;;		None
  4584 ;; Return value:  Size  Location     Type
  4585 ;;                  1    wreg      void 
  4586 ;; Registers used:
  4587 ;;		wreg, fsr0l, fsr0h, status,2, status,0, pclath, cstack
  4588 ;; Tracked objects:
  4589 ;;		On entry : 0/0
  4590 ;;		On exit  : 0/0
  4591 ;;		Unchanged: 0/0
  4592 ;; Data sizes:     COMMON   BANK0   BANK1   BANK3   BANK2
  4593 ;;      Params:         0       0       0       0       0
  4594 ;;      Locals:         0       0       0       0       0
  4595 ;;      Temps:          0       6       0       0       0
  4596 ;;      Totals:         0       6       0       0       0
  4597 ;;Total ram usage:        6 bytes
  4598 ;; Hardware stack levels used: 1
  4599 ;; Hardware stack levels required when called: 1
  4600 ;; This function calls:
  4601 ;;		___awdiv
  4602 ;;		_strlen
  4603 ;; This function is called by:
  4604 ;;		Interrupt level 1
  4605 ;; This function uses a non-reentrant model
  4606 ;;
  4607                           
  4608                           
  4609                           ;psect for function _isr
  4610  04F1                     _isr:
  4611  04F1                     i1l2172:
  4612                           
  4613                           ;P1 Master.c: 161:     if (RCIF == 1) {
  4614  04F1  1E8C               	btfss	12,5	;volatile
  4615  04F2  2CF4               	goto	u196_21
  4616  04F3  2CF5               	goto	u196_20
  4617  04F4                     u196_21:
  4618  04F4  2D66               	goto	i1l124
  4619  04F5                     u196_20:
  4620  04F5                     i1l2174:
  4621                           
  4622                           ;P1 Master.c: 162:         opcion = RCREG;
  4623  04F5  081A               	movf	26,w	;volatile
  4624  04F6  00A0               	movwf	??_isr
  4625  04F7  0820               	movf	??_isr,w
  4626  04F8  00FB               	movwf	_opcion
  4627                           
  4628                           ;P1 Master.c: 163:         switch (opcion) {
  4629  04F9  2D4F               	goto	i1l2198
  4630  04FA                     i1l2176:
  4631                           
  4632                           ;P1 Master.c: 165:                 TXREG = (CC+ 48);
  4633  04FA  0862               	movf	_CC,w
  4634  04FB  3E30               	addlw	48
  4635  04FC  0099               	movwf	25	;volatile
  4636                           
  4637                           ;P1 Master.c: 166:             break;
  4638  04FD  2D65               	goto	i1l116
  4639  04FE                     i1l2180:
  4640                           
  4641                           ;P1 Master.c: 171:                 distancia = (Tnk/7);
  4642  04FE  3007               	movlw	7
  4643  04FF  00F0               	movwf	___awdiv@divisor
  4644  0500  3000               	movlw	0
  4645  0501  00F1               	movwf	___awdiv@divisor+1
  4646  0502  0865               	movf	_Tnk,w
  4647  0503  00A0               	movwf	??_isr
  4648  0504  01A1               	clrf	??_isr+1
  4649  0505  0820               	movf	??_isr,w
  4650  0506  00F2               	movwf	___awdiv@dividend
  4651  0507  0821               	movf	??_isr+1,w
  4652  0508  00F3               	movwf	___awdiv@dividend+1
  4653  0509  120A  118A  26C7  120A  118A  	fcall	___awdiv
  4654  050E  0870               	movf	?___awdiv,w
  4655  050F  1283               	bcf	3,5	;RP0=0, select bank0
  4656  0510  1303               	bcf	3,6	;RP1=0, select bank0
  4657  0511  00A2               	movwf	??_isr+2
  4658  0512  0822               	movf	??_isr+2,w
  4659  0513  00F9               	movwf	_distancia
  4660  0514                     i1l2182:
  4661                           
  4662                           ;P1 Master.c: 172:                 TXREG = (distancia + 48);
  4663  0514  0879               	movf	_distancia,w
  4664  0515  3E30               	addlw	48
  4665  0516  0099               	movwf	25	;volatile
  4666                           
  4667                           ;P1 Master.c: 173:             break;
  4668  0517  2D65               	goto	i1l116
  4669  0518                     i1l2184:
  4670                           
  4671                           ;P1 Master.c: 175:                 for (i = 0; i < strlen(LZ); i++) {
  4672  0518  01FA               	clrf	_i
  4673  0519  2D39               	goto	i1l2194
  4674  051A                     i1l2186:
  4675                           
  4676                           ;P1 Master.c: 176:                 _delay((unsigned long)((100)*(8000000/4000.0)));
  4677  051A  3002               	movlw	2
  4678  051B  1283               	bcf	3,5	;RP0=0, select bank0
  4679  051C  1303               	bcf	3,6	;RP1=0, select bank0
  4680  051D  00A2               	movwf	??_isr+2
  4681  051E  3004               	movlw	4
  4682  051F  00A1               	movwf	??_isr+1
  4683  0520  30B9               	movlw	185
  4684  0521  00A0               	movwf	??_isr
  4685  0522                     u211_27:
  4686  0522  0BA0               	decfsz	??_isr,f
  4687  0523  2D22               	goto	u211_27
  4688  0524  0BA1               	decfsz	??_isr+1,f
  4689  0525  2D22               	goto	u211_27
  4690  0526  0BA2               	decfsz	??_isr+2,f
  4691  0527  2D22               	goto	u211_27
  4692  0528  2D29               	nop2
  4693  0529                     i1l2188:
  4694                           
  4695                           ;P1 Master.c: 177:                     if (TXIF == 1) {
  4696  0529  1283               	bcf	3,5	;RP0=0, select bank0
  4697  052A  1303               	bcf	3,6	;RP1=0, select bank0
  4698  052B  1E0C               	btfss	12,4	;volatile
  4699  052C  2D2E               	goto	u197_21
  4700  052D  2D2F               	goto	u197_20
  4701  052E                     u197_21:
  4702  052E  2D35               	goto	i1l2192
  4703  052F                     u197_20:
  4704  052F                     i1l2190:
  4705                           
  4706                           ;P1 Master.c: 178:                         TXREG = LZ[i];
  4707  052F  087A               	movf	_i,w
  4708  0530  3E63               	addlw	(low (_LZ| 0))& (0+255)
  4709  0531  0084               	movwf	4
  4710  0532  1383               	bcf	3,7	;select IRP bank0
  4711  0533  0800               	movf	0,w
  4712  0534  0099               	movwf	25	;volatile
  4713  0535                     i1l2192:
  4714                           
  4715                           ;P1 Master.c: 180:                 }
  4716  0535  3001               	movlw	1
  4717  0536  00A0               	movwf	??_isr
  4718  0537  0820               	movf	??_isr,w
  4719  0538  07FA               	addwf	_i,f
  4720  0539                     i1l2194:
  4721  0539  3063               	movlw	(low (_LZ| 0))& (0+255)
  4722  053A  120A  158A  262B  120A  118A  	fcall	_strlen
  4723  053F  087A               	movf	_i,w
  4724  0540  1283               	bcf	3,5	;RP0=0, select bank0
  4725  0541  1303               	bcf	3,6	;RP1=0, select bank0
  4726  0542  00A0               	movwf	??_isr
  4727  0543  01A1               	clrf	??_isr+1
  4728  0544  0871               	movf	?_strlen+1,w
  4729  0545  0221               	subwf	??_isr+1,w
  4730  0546  1D03               	skipz
  4731  0547  2D4A               	goto	u198_25
  4732  0548  0870               	movf	?_strlen,w
  4733  0549  0220               	subwf	??_isr,w
  4734  054A                     u198_25:
  4735  054A  1C03               	skipc
  4736  054B  2D4D               	goto	u198_21
  4737  054C  2D4E               	goto	u198_20
  4738  054D                     u198_21:
  4739  054D  2D1A               	goto	i1l2186
  4740  054E                     u198_20:
  4741  054E  2D65               	goto	i1l116
  4742  054F                     i1l2198:
  4743  054F  087B               	movf	_opcion,w
  4744  0550  00A0               	movwf	??_isr
  4745  0551  01A1               	clrf	??_isr+1
  4746                           
  4747                           ; Switch on 2 bytes has been partitioned into a top level switch of size 1, and 1 sub-sw
      +                          itches
  4748                           ; Switch size 1, requested type "simple"
  4749                           ; Number of cases is 1, Range of values is 0 to 0
  4750                           ; switch strategies available:
  4751                           ; Name         Instructions Cycles
  4752                           ; simple_byte            4     3 (average)
  4753                           ; direct_byte           11     8 (fixed)
  4754                           ; jumptable            260     6 (fixed)
  4755                           ;	Chosen strategy is simple_byte
  4756  0552  0821               	movf	??_isr+1,w
  4757  0553  3A00               	xorlw	0	; case 0
  4758  0554  1903               	skipnz
  4759  0555  2D57               	goto	i1l2232
  4760  0556  2D65               	goto	i1l116
  4761  0557                     i1l2232:
  4762                           
  4763                           ; Switch size 1, requested type "simple"
  4764                           ; Number of cases is 4, Range of values is 97 to 100
  4765                           ; switch strategies available:
  4766                           ; Name         Instructions Cycles
  4767                           ; simple_byte           13     7 (average)
  4768                           ; direct_byte           23    11 (fixed)
  4769                           ; jumptable            263     9 (fixed)
  4770                           ;	Chosen strategy is simple_byte
  4771  0557  0820               	movf	??_isr,w
  4772  0558  3A61               	xorlw	97	; case 97
  4773  0559  1903               	skipnz
  4774  055A  2CFA               	goto	i1l2176
  4775  055B  3A03               	xorlw	3	; case 98
  4776  055C  1903               	skipnz
  4777  055D  2CFA               	goto	i1l2176
  4778  055E  3A01               	xorlw	1	; case 99
  4779  055F  1903               	skipnz
  4780  0560  2CFE               	goto	i1l2180
  4781  0561  3A07               	xorlw	7	; case 100
  4782  0562  1903               	skipnz
  4783  0563  2D18               	goto	i1l2184
  4784  0564  2D65               	goto	i1l116
  4785  0565                     i1l116:
  4786                           
  4787                           ;P1 Master.c: 183:         RCIF = 0;
  4788  0565  128C               	bcf	12,5	;volatile
  4789  0566                     i1l124:
  4790  0566  0825               	movf	??_isr+5,w
  4791  0567  008A               	movwf	10
  4792  0568  0824               	movf	??_isr+4,w
  4793  0569  0084               	movwf	4
  4794  056A  0E23               	swapf	??_isr+3,w
  4795  056B  0083               	movwf	3
  4796  056C  0EFE               	swapf	btemp,f
  4797  056D  0E7E               	swapf	btemp,w
  4798  056E  0009               	retfie
  4799  056F                     __end_of_isr:
  4800                           
  4801                           	psect	intentry
  4802  0004                     __pintentry:	
  4803                           ;incstack = 0
  4804                           ; Regs used in _isr: [wreg-fsr0h+status,2+status,0+pclath+cstack]
  4805                           
  4806  0004                     interrupt_function:
  4807  007E                     saved_w	set	btemp
  4808  0004  00FE               	movwf	btemp
  4809  0005  0E03               	swapf	3,w
  4810  0006  1283               	bcf	3,5	;RP0=0, select bank0
  4811  0007  1303               	bcf	3,6	;RP1=0, select bank0
  4812  0008  00A3               	movwf	??_isr+3
  4813  0009  0804               	movf	4,w
  4814  000A  00A4               	movwf	??_isr+4
  4815  000B  080A               	movf	10,w
  4816  000C  00A5               	movwf	??_isr+5
  4817  000D  120A  118A  2CF1   	ljmp	_isr
  4818                           
  4819                           	psect	text23
  4820  0E2B                     __ptext23:	
  4821 ;; *************** function _strlen *****************
  4822 ;; Defined at:
  4823 ;;		line 4 in file "C:\Program Files\Microchip\xc8\v2.32\pic\sources\c90\common\strlen.c"
  4824 ;; Parameters:    Size  Location     Type
  4825 ;;  s               1    wreg     PTR const unsigned char 
  4826 ;;		 -> LZ(2), 
  4827 ;; Auto vars:     Size  Location     Type
  4828 ;;  s               1    3[COMMON] PTR const unsigned char 
  4829 ;;		 -> LZ(2), 
  4830 ;;  cp              1    4[COMMON] PTR const unsigned char 
  4831 ;;		 -> LZ(2), 
  4832 ;; Return value:  Size  Location     Type
  4833 ;;                  2    0[COMMON] unsigned int 
  4834 ;; Registers used:
  4835 ;;		wreg, fsr0l, fsr0h, status,2, status,0
  4836 ;; Tracked objects:
  4837 ;;		On entry : 0/0
  4838 ;;		On exit  : 0/0
  4839 ;;		Unchanged: 0/0
  4840 ;; Data sizes:     COMMON   BANK0   BANK1   BANK3   BANK2
  4841 ;;      Params:         2       0       0       0       0
  4842 ;;      Locals:         2       0       0       0       0
  4843 ;;      Temps:          1       0       0       0       0
  4844 ;;      Totals:         5       0       0       0       0
  4845 ;;Total ram usage:        5 bytes
  4846 ;; Hardware stack levels used: 1
  4847 ;; This function calls:
  4848 ;;		Nothing
  4849 ;; This function is called by:
  4850 ;;		_isr
  4851 ;; This function uses a non-reentrant model
  4852 ;;
  4853                           
  4854                           
  4855                           ;psect for function _strlen
  4856  0E2B                     _strlen:
  4857                           
  4858                           ;incstack = 0
  4859                           ; Regs used in _strlen: [wreg-fsr0h+status,2+status,0]
  4860                           ;strlen@s stored from wreg
  4861  0E2B  00F3               	movwf	strlen@s
  4862  0E2C                     i1l1804:
  4863  0E2C  0873               	movf	strlen@s,w
  4864  0E2D  00F2               	movwf	??_strlen
  4865  0E2E  0872               	movf	??_strlen,w
  4866  0E2F  00F4               	movwf	strlen@cp
  4867  0E30  2E35               	goto	i1l1808
  4868  0E31                     i1l1806:
  4869  0E31  3001               	movlw	1
  4870  0E32  00F2               	movwf	??_strlen
  4871  0E33  0872               	movf	??_strlen,w
  4872  0E34  07F4               	addwf	strlen@cp,f
  4873  0E35                     i1l1808:
  4874  0E35  0874               	movf	strlen@cp,w
  4875  0E36  0084               	movwf	4
  4876  0E37  1383               	bcf	3,7	;select IRP bank0
  4877  0E38  0800               	movf	0,w
  4878  0E39  1D03               	btfss	3,2
  4879  0E3A  2E3C               	goto	u132_21
  4880  0E3B  2E3D               	goto	u132_20
  4881  0E3C                     u132_21:
  4882  0E3C  2E31               	goto	i1l1806
  4883  0E3D                     u132_20:
  4884  0E3D                     i1l1810:
  4885  0E3D  0873               	movf	strlen@s,w
  4886  0E3E  0274               	subwf	strlen@cp,w
  4887  0E3F  00F0               	movwf	?_strlen
  4888  0E40  01F1               	clrf	?_strlen+1
  4889  0E41  1BF0               	btfsc	?_strlen,7
  4890  0E42  03F1               	decf	?_strlen+1,f
  4891  0E43                     i1l780:
  4892  0E43  0008               	return
  4893  0E44                     __end_of_strlen:
  4894                           
  4895                           	psect	text24
  4896  06C7                     __ptext24:	
  4897 ;; *************** function ___awdiv *****************
  4898 ;; Defined at:
  4899 ;;		line 5 in file "C:\Program Files\Microchip\xc8\v2.32\pic\sources\c90\common\awdiv.c"
  4900 ;; Parameters:    Size  Location     Type
  4901 ;;  divisor         2    0[COMMON] int 
  4902 ;;  dividend        2    2[COMMON] int 
  4903 ;; Auto vars:     Size  Location     Type
  4904 ;;  quotient        2    7[COMMON] int 
  4905 ;;  sign            1    6[COMMON] unsigned char 
  4906 ;;  counter         1    5[COMMON] unsigned char 
  4907 ;; Return value:  Size  Location     Type
  4908 ;;                  2    0[COMMON] int 
  4909 ;; Registers used:
  4910 ;;		wreg, status,2, status,0
  4911 ;; Tracked objects:
  4912 ;;		On entry : 0/0
  4913 ;;		On exit  : 0/0
  4914 ;;		Unchanged: 0/0
  4915 ;; Data sizes:     COMMON   BANK0   BANK1   BANK3   BANK2
  4916 ;;      Params:         4       0       0       0       0
  4917 ;;      Locals:         4       0       0       0       0
  4918 ;;      Temps:          1       0       0       0       0
  4919 ;;      Totals:         9       0       0       0       0
  4920 ;;Total ram usage:        9 bytes
  4921 ;; Hardware stack levels used: 1
  4922 ;; This function calls:
  4923 ;;		Nothing
  4924 ;; This function is called by:
  4925 ;;		_isr
  4926 ;; This function uses a non-reentrant model
  4927 ;;
  4928                           
  4929                           
  4930                           ;psect for function ___awdiv
  4931  06C7                     ___awdiv:
  4932  06C7                     i1l1814:	
  4933                           ;incstack = 0
  4934                           ; Regs used in ___awdiv: [wreg+status,2+status,0]
  4935                           
  4936  06C7  01F6               	clrf	___awdiv@sign
  4937  06C8                     i1l1816:
  4938  06C8  1FF1               	btfss	___awdiv@divisor+1,7
  4939  06C9  2ECB               	goto	u133_21
  4940  06CA  2ECC               	goto	u133_20
  4941  06CB                     u133_21:
  4942  06CB  2ED3               	goto	i1l1822
  4943  06CC                     u133_20:
  4944  06CC                     i1l1818:
  4945  06CC  09F0               	comf	___awdiv@divisor,f
  4946  06CD  09F1               	comf	___awdiv@divisor+1,f
  4947  06CE  0AF0               	incf	___awdiv@divisor,f
  4948  06CF  1903               	skipnz
  4949  06D0  0AF1               	incf	___awdiv@divisor+1,f
  4950  06D1                     i1l1820:
  4951  06D1  01F6               	clrf	___awdiv@sign
  4952  06D2  0AF6               	incf	___awdiv@sign,f
  4953  06D3                     i1l1822:
  4954  06D3  1FF3               	btfss	___awdiv@dividend+1,7
  4955  06D4  2ED6               	goto	u134_21
  4956  06D5  2ED7               	goto	u134_20
  4957  06D6                     u134_21:
  4958  06D6  2EE0               	goto	i1l1828
  4959  06D7                     u134_20:
  4960  06D7                     i1l1824:
  4961  06D7  09F2               	comf	___awdiv@dividend,f
  4962  06D8  09F3               	comf	___awdiv@dividend+1,f
  4963  06D9  0AF2               	incf	___awdiv@dividend,f
  4964  06DA  1903               	skipnz
  4965  06DB  0AF3               	incf	___awdiv@dividend+1,f
  4966  06DC                     i1l1826:
  4967  06DC  3001               	movlw	1
  4968  06DD  00F4               	movwf	??___awdiv
  4969  06DE  0874               	movf	??___awdiv,w
  4970  06DF  06F6               	xorwf	___awdiv@sign,f
  4971  06E0                     i1l1828:
  4972  06E0  01F7               	clrf	___awdiv@quotient
  4973  06E1  01F8               	clrf	___awdiv@quotient+1
  4974  06E2                     i1l1830:
  4975  06E2  0870               	movf	___awdiv@divisor,w
  4976  06E3  0471               	iorwf	___awdiv@divisor+1,w
  4977  06E4  1903               	btfsc	3,2
  4978  06E5  2EE7               	goto	u135_21
  4979  06E6  2EE8               	goto	u135_20
  4980  06E7                     u135_21:
  4981  06E7  2F1F               	goto	i1l1850
  4982  06E8                     u135_20:
  4983  06E8                     i1l1832:
  4984  06E8  01F5               	clrf	___awdiv@counter
  4985  06E9  0AF5               	incf	___awdiv@counter,f
  4986  06EA  2EF6               	goto	i1l1838
  4987  06EB                     i1l1834:
  4988  06EB  3001               	movlw	1
  4989  06EC                     u136_25:
  4990  06EC  1003               	clrc
  4991  06ED  0DF0               	rlf	___awdiv@divisor,f
  4992  06EE  0DF1               	rlf	___awdiv@divisor+1,f
  4993  06EF  3EFF               	addlw	-1
  4994  06F0  1D03               	skipz
  4995  06F1  2EEC               	goto	u136_25
  4996  06F2                     i1l1836:
  4997  06F2  3001               	movlw	1
  4998  06F3  00F4               	movwf	??___awdiv
  4999  06F4  0874               	movf	??___awdiv,w
  5000  06F5  07F5               	addwf	___awdiv@counter,f
  5001  06F6                     i1l1838:
  5002  06F6  1FF1               	btfss	___awdiv@divisor+1,7
  5003  06F7  2EF9               	goto	u137_21
  5004  06F8  2EFA               	goto	u137_20
  5005  06F9                     u137_21:
  5006  06F9  2EEB               	goto	i1l1834
  5007  06FA                     u137_20:
  5008  06FA                     i1l1840:
  5009  06FA  3001               	movlw	1
  5010  06FB                     u138_25:
  5011  06FB  1003               	clrc
  5012  06FC  0DF7               	rlf	___awdiv@quotient,f
  5013  06FD  0DF8               	rlf	___awdiv@quotient+1,f
  5014  06FE  3EFF               	addlw	-1
  5015  06FF  1D03               	skipz
  5016  0700  2EFB               	goto	u138_25
  5017  0701  0871               	movf	___awdiv@divisor+1,w
  5018  0702  0273               	subwf	___awdiv@dividend+1,w
  5019  0703  1D03               	skipz
  5020  0704  2F07               	goto	u139_25
  5021  0705  0870               	movf	___awdiv@divisor,w
  5022  0706  0272               	subwf	___awdiv@dividend,w
  5023  0707                     u139_25:
  5024  0707  1C03               	skipc
  5025  0708  2F0A               	goto	u139_21
  5026  0709  2F0B               	goto	u139_20
  5027  070A                     u139_21:
  5028  070A  2F12               	goto	i1l1846
  5029  070B                     u139_20:
  5030  070B                     i1l1842:
  5031  070B  0870               	movf	___awdiv@divisor,w
  5032  070C  02F2               	subwf	___awdiv@dividend,f
  5033  070D  0871               	movf	___awdiv@divisor+1,w
  5034  070E  1C03               	skipc
  5035  070F  03F3               	decf	___awdiv@dividend+1,f
  5036  0710  02F3               	subwf	___awdiv@dividend+1,f
  5037  0711                     i1l1844:
  5038  0711  1477               	bsf	___awdiv@quotient,0
  5039  0712                     i1l1846:
  5040  0712  3001               	movlw	1
  5041  0713                     u140_25:
  5042  0713  1003               	clrc
  5043  0714  0CF1               	rrf	___awdiv@divisor+1,f
  5044  0715  0CF0               	rrf	___awdiv@divisor,f
  5045  0716  3EFF               	addlw	-1
  5046  0717  1D03               	skipz
  5047  0718  2F13               	goto	u140_25
  5048  0719                     i1l1848:
  5049  0719  3001               	movlw	1
  5050  071A  02F5               	subwf	___awdiv@counter,f
  5051  071B  1D03               	btfss	3,2
  5052  071C  2F1E               	goto	u141_21
  5053  071D  2F1F               	goto	u141_20
  5054  071E                     u141_21:
  5055  071E  2EFA               	goto	i1l1840
  5056  071F                     u141_20:
  5057  071F                     i1l1850:
  5058  071F  0876               	movf	___awdiv@sign,w
  5059  0720  1903               	btfsc	3,2
  5060  0721  2F23               	goto	u142_21
  5061  0722  2F24               	goto	u142_20
  5062  0723                     u142_21:
  5063  0723  2F29               	goto	i1l1854
  5064  0724                     u142_20:
  5065  0724                     i1l1852:
  5066  0724  09F7               	comf	___awdiv@quotient,f
  5067  0725  09F8               	comf	___awdiv@quotient+1,f
  5068  0726  0AF7               	incf	___awdiv@quotient,f
  5069  0727  1903               	skipnz
  5070  0728  0AF8               	incf	___awdiv@quotient+1,f
  5071  0729                     i1l1854:
  5072  0729  0878               	movf	___awdiv@quotient+1,w
  5073  072A  00F1               	movwf	?___awdiv+1
  5074  072B  0877               	movf	___awdiv@quotient,w
  5075  072C  00F0               	movwf	?___awdiv
  5076  072D                     i1l479:
  5077  072D  0008               	return
  5078  072E                     __end_of___awdiv:
  5079  007E                     btemp	set	126	;btemp
  5080  007E                     wtemp0	set	126
  5081                           
  5082                           	psect	config
  5083                           
  5084                           ;Config register CONFIG1 @ 0x2007
  5085                           ;	Oscillator Selection bits
  5086                           ;	FOSC = INTRC_NOCLKOUT, INTOSCIO oscillator: I/O function on RA6/OSC2/CLKOUT pin, I/O f
      +                          unction on RA7/OSC1/CLKIN
  5087                           ;	Watchdog Timer Enable bit
  5088                           ;	WDTE = OFF, WDT disabled and can be enabled by SWDTEN bit of the WDTCON register
  5089                           ;	Power-up Timer Enable bit
  5090                           ;	PWRTE = ON, PWRT enabled
  5091                           ;	RE3/MCLR pin function select bit
  5092                           ;	MCLRE = OFF, RE3/MCLR pin function is digital input, MCLR internally tied to VDD
  5093                           ;	Code Protection bit
  5094                           ;	CP = OFF, Program memory code protection is disabled
  5095                           ;	Data Code Protection bit
  5096                           ;	CPD = OFF, Data memory code protection is disabled
  5097                           ;	Brown Out Reset Selection bits
  5098                           ;	BOREN = OFF, BOR disabled
  5099                           ;	Internal External Switchover bit
  5100                           ;	IESO = OFF, Internal/External Switchover mode is disabled
  5101                           ;	Fail-Safe Clock Monitor Enabled bit
  5102                           ;	FCMEN = OFF, Fail-Safe Clock Monitor is disabled
  5103                           ;	Low Voltage Programming Enable bit
  5104                           ;	LVP = OFF, RB3 pin has digital I/O, HV on MCLR must be used for programming
  5105                           ;	In-Circuit Debugger Mode bit
  5106                           ;	DEBUG = 0x1, unprogrammed default
  5107  2007                     	org	8199
  5108  2007  20C4               	dw	8388
  5109                           
  5110                           ;Config register CONFIG2 @ 0x2008
  5111                           ;	Brown-out Reset Selection bit
  5112                           ;	BOR4V = BOR40V, Brown-out Reset set to 4.0V
  5113                           ;	Flash Program Memory Self Write Enable bits
  5114                           ;	WRT = OFF, Write protection off
  5115  2008                     	org	8200
  5116  2008  3FFF               	dw	16383

Data Sizes:
    Strings     22
    Constant    0
    Data        1
    BSS         12
    Persistent  0
    Stack       0

Auto Spaces:
    Space          Size  Autos    Used
    COMMON           14      9      12
    BANK0            80     60      70
    BANK1            80      0       0
    BANK3            96      0       0
    BANK2            96      0       0

Pointer List with Targets:

    strlen@s	PTR const unsigned char  size(1) Largest target is 2
		 -> LZ(BANK0[2]), 

    strlen@cp	PTR const unsigned char  size(1) Largest target is 2
		 -> LZ(BANK0[2]), 

    Lcd_Write_String@a	PTR unsigned char  size(1) Largest target is 17
		 -> STR_5(CODE[2]), STR_4(CODE[2]), STR_3(CODE[3]), STR_2(CODE[3]), 
		 -> STR_1(CODE[17]), 


Critical Paths under _main in COMMON

    None.

Critical Paths under _isr in COMMON

    _isr->___awdiv

Critical Paths under _main in BANK0

    _main->___fltol
    _setup->_I2C_Master_Init
    _I2C_Master_Init->___lldiv
    ___fltol->___fldiv
    ___fldiv->___xxtofl
    _Lcd_Write_String->_Lcd_Write_Char
    _Lcd_Write_Char->_Lcd_Port
    _Lcd_Set_Cursor->_Lcd_Cmd
    _Lcd_Init->_Lcd_Cmd
    _Lcd_Clear->_Lcd_Cmd
    _Lcd_Cmd->_Lcd_Port
    _Decimal->___lwdiv

Critical Paths under _isr in BANK0

    None.

Critical Paths under _main in BANK1

    None.

Critical Paths under _isr in BANK1

    None.

Critical Paths under _main in BANK3

    None.

Critical Paths under _isr in BANK3

    None.

Critical Paths under _main in BANK2

    None.

Critical Paths under _isr in BANK2

    None.

Call Graph Tables:

 ---------------------------------------------------------------------------------
 (Depth) Function   	        Calls       Base Space   Used Autos Params    Refs
 ---------------------------------------------------------------------------------
 (0) _main                                                 3     3      0    6119
                                             57 BANK0      3     3      0
                            _Decimal
                    _I2C_Master_Read
                   _I2C_Master_Start
                    _I2C_Master_Stop
                   _I2C_Master_Write
                          _Lcd_Clear
                           _Lcd_Init
                     _Lcd_Set_Cursor
                     _Lcd_Write_Char
                   _Lcd_Write_String
                            ___fldiv
                            ___fltol
                           ___xxtofl
                              _setup
 ---------------------------------------------------------------------------------
 (1) _setup                                                0     0      0     412
                    _I2C_Master_Init
 ---------------------------------------------------------------------------------
 (2) _I2C_Master_Init                                      8     4      4     412
                                             20 BANK0      8     4      4
                            ___lldiv
 ---------------------------------------------------------------------------------
 (3) ___lldiv                                             14     6      8     314
                                              6 BANK0     14     6      8
 ---------------------------------------------------------------------------------
 (1) ___xxtofl                                            14    10      4     398
                                              6 BANK0     14    10      4
 ---------------------------------------------------------------------------------
 (1) ___fltol                                             11     7      4     305
                                             46 BANK0     11     7      4
                            ___fldiv (ARG)
                           ___xxtofl (ARG)
 ---------------------------------------------------------------------------------
 (1) ___fldiv                                             26    18      8    1273
                                             20 BANK0     26    18      8
                           ___xxtofl (ARG)
 ---------------------------------------------------------------------------------
 (1) _Lcd_Write_String                                     3     3      0     433
                                             11 BANK0      3     3      0
                     _Lcd_Write_Char
 ---------------------------------------------------------------------------------
 (2) _Lcd_Write_Char                                       4     4      0     178
                                              7 BANK0      4     4      0
                           _Lcd_Port
 ---------------------------------------------------------------------------------
 (1) _Lcd_Set_Cursor                                       7     6      1     532
                                             10 BANK0      7     6      1
                            _Lcd_Cmd
 ---------------------------------------------------------------------------------
 (1) _Lcd_Init                                             2     2      0     198
                                             10 BANK0      2     2      0
                            _Lcd_Cmd
                           _Lcd_Port
 ---------------------------------------------------------------------------------
 (1) _Lcd_Clear                                            0     0      0     110
                            _Lcd_Cmd
 ---------------------------------------------------------------------------------
 (2) _Lcd_Cmd                                              3     3      0     110
                                              7 BANK0      3     3      0
                           _Lcd_Port
 ---------------------------------------------------------------------------------
 (3) _Lcd_Port                                             1     1      0      88
                                              6 BANK0      1     1      0
 ---------------------------------------------------------------------------------
 (1) _I2C_Master_Write                                     2     0      2     630
                                              6 BANK0      2     0      2
                    _I2C_Master_Wait
 ---------------------------------------------------------------------------------
 (1) _I2C_Master_Stop                                      0     0      0       0
                    _I2C_Master_Wait
 ---------------------------------------------------------------------------------
 (1) _I2C_Master_Start                                     0     0      0       0
                    _I2C_Master_Wait
 ---------------------------------------------------------------------------------
 (1) _I2C_Master_Read                                      6     4      2     349
                                              6 BANK0      6     4      2
                    _I2C_Master_Wait
 ---------------------------------------------------------------------------------
 (2) _I2C_Master_Wait                                      0     0      0       0
 ---------------------------------------------------------------------------------
 (1) _Decimal                                              6     4      2    1301
                                             14 BANK0      6     4      2
                            ___lwdiv
                             ___wmul
 ---------------------------------------------------------------------------------
 (2) ___wmul                                               6     2      4     396
                                              6 BANK0      6     2      4
 ---------------------------------------------------------------------------------
 (2) ___lwdiv                                              8     4      4     466
                                              6 BANK0      8     4      4
 ---------------------------------------------------------------------------------
 Estimated maximum stack depth 3
 ---------------------------------------------------------------------------------
 (Depth) Function   	        Calls       Base Space   Used Autos Params    Refs
 ---------------------------------------------------------------------------------
 (4) _isr                                                  6     6      0     575
                                              0 BANK0      6     6      0
                            ___awdiv
                             _strlen
 ---------------------------------------------------------------------------------
 (5) _strlen                                               5     3      2     123
                                              0 COMMON     5     3      2
 ---------------------------------------------------------------------------------
 (5) ___awdiv                                              9     5      4     452
                                              0 COMMON     9     5      4
 ---------------------------------------------------------------------------------
 Estimated maximum stack depth 5
 ---------------------------------------------------------------------------------

 Call Graph Graphs:

 _main (ROOT)
   _Decimal
     ___lwdiv
     ___wmul
   _I2C_Master_Read
     _I2C_Master_Wait
   _I2C_Master_Start
     _I2C_Master_Wait
   _I2C_Master_Stop
     _I2C_Master_Wait
   _I2C_Master_Write
     _I2C_Master_Wait
   _Lcd_Clear
     _Lcd_Cmd
       _Lcd_Port
   _Lcd_Init
     _Lcd_Cmd
     _Lcd_Port
   _Lcd_Set_Cursor
     _Lcd_Cmd
   _Lcd_Write_Char
     _Lcd_Port
   _Lcd_Write_String
     _Lcd_Write_Char
   ___fldiv
     ___xxtofl (ARG)
   ___fltol
     ___fldiv (ARG)
     ___xxtofl (ARG)
   ___xxtofl
   _setup
     _I2C_Master_Init
       ___lldiv

 _isr (ROOT)
   ___awdiv
   _strlen

 Address spaces:
Name               Size   Autos  Total    Cost      Usage
BANK3               60      0       0       9        0.0%
BITBANK3            60      0       0       8        0.0%
SFR3                 0      0       0       4        0.0%
BITSFR3              0      0       0       4        0.0%
BANK2               60      0       0      11        0.0%
BITBANK2            60      0       0      10        0.0%
SFR2                 0      0       0       5        0.0%
BITSFR2              0      0       0       5        0.0%
BANK1               50      0       0       7        0.0%
BITBANK1            50      0       0       6        0.0%
SFR1                 0      0       0       2        0.0%
BITSFR1              0      0       0       2        0.0%
BANK0               50     3C      46       5       87.5%
BITBANK0            50      0       0       4        0.0%
SFR0                 0      0       0       1        0.0%
BITSFR0              0      0       0       1        0.0%
COMMON               E      9       C       1       85.7%
BITCOMMON            E      0       0       0        0.0%
CODE                 0      0       0       0        0.0%
DATA                 0      0      52      12        0.0%
ABS                  0      0      52       3        0.0%
NULL                 0      0       0       0        0.0%
STACK                0      0       0       2        0.0%
EEDATA             100      0       0       0        0.0%


Microchip Technology PIC Macro Assembler V2.32 build 20210201212658 
Symbol Table                                                                                   Tue Sep 07 19:53:46 2021

             ___fldiv@aexp 004D               ___fldiv@bexp 004C                          _i 007A  
                        pc 0002               ___fldiv@sign 0045                         _CC 0062  
                       _LZ 0063               ___awdiv@sign 0076                         _Sp 0061  
                       fsr 0004        ___wmul@multiplicand 0028                        l130 065E  
                      l220 0E2A                        l150 0E71                        l214 0F3B  
                      l223 0E14                        l151 0E77                        l127 0FB9  
                      l232 07FE                        l152 0E78                        l217 0E1E  
                      l153 0E7E                        l161 07F4                        l170 078F  
                      l235 0EF7                        l155 0E7F                        l147 0E69  
                      l236 0EFA                        l148 0E6A                        l237 0F01  
                      l229 0E1D                        l149 0E70                        l173 0F78  
                      l326 0E8E                        l158 0E5F                        l167 07E7  
                      l328 0EA6                        l512 05EA                        l522 05EA  
                      l362 06C6                        l179 0ECF                        l519 05D5  
                      l761 04F0                        l691 03A6                        l675 02B4  
                      l772 04BA                        l677 0434                        l773 04C6  
                      l765 049E                        l598 0FFF                        l759 0459  
                      l697 0418                        l699 0428                        _GIE 005F  
                      _RD2 0042                        _RD3 0043                        _RD4 0044  
                      _RD5 0045                        _RD6 0046                        _RD7 0047  
                      _Luz 005C                        _Tnk 0065                        _isr 04F1  
                      fsr0 0004                        indf 0000               ___fltol@exp1 0058  
                     l2000 03A3                       l2010 03C2                       l2020 040B  
                     l2012 03DB                       l2004 03AB                       l2100 0096  
                     l2030 0424                       l2022 040F                       l2006 03B0  
                     l2014 03E1                       l2110 00CA                       l2102 009B  
                     l2024 0417                       l2016 03EE                       l2008 03BE  
                     l2040 0441                       l2120 0117                       l2112 00D2  
                     l2104 00AA                       l2026 041E                       l2018 03FC  
                     l2050 046F                       l2042 0451                       l2130 0164  
                     l2122 0127                       l2114 00F8                       l2106 00B8  
                     l2028 0422                       l2060 04A5                       l2052 047C  
                     l2044 0461                       l2036 0438                       l2140 01CD  
                     l2132 016F                       l2124 012C                       l2116 0107  
                     l2108 00C2                       l2070 04DE                       l2062 04B0  
                     l2054 0483                       l2038 043D                       l2150 01EE  
                     l2142 01D6                       l2134 017F                       l2126 0159  
                     l2118 010C                       l1600 0F75                       l2072 04E3  
                     l2064 04B4                       l2056 0487                       l2048 046A  
                     l2160 021A                       l2152 01F4                       l2144 01DC  
                     l2136 0184                       l2128 015F                       l2080 0029  
                     l2074 04E7                       l2066 04BE                       l2058 0495  
                     l1610 0F39                       l1602 0F02                       l2170 024C  
                     l2162 021F                       l2154 01FA                       l2146 01E0  
                     l2138 0193                       l2090 0062                       l2082 0042  
                     l1620 0E51                       l2076 04E8                       l2068 04C8  
                     l1612 0F3A                       l1604 0F06                       l1700 0FA6  
                     l2164 022E                       l2156 01FF                       l2148 01E6  
                     l2092 0067                       l2084 0048                       l1630 0E84  
                     l1550 0E67                       l1622 0E5C                       l1614 0E47  
                     l1606 0F09                       l1710 0FB2                       l1702 0FA9  
                     l2166 023C                       l2158 020A                       l2094 0076  
                     l2086 004D                       l1632 0E88                       l1800 0654  
                     l1624 0E1E                       l1552 0E6E                       l1616 0E48  
                     l1720 072E                       l1560 0671                       l1608 0F38  
                     l1712 0FB3                       l1704 0FAA                       l2168 0244  
                     l2096 007B                       l2088 0058                       l1650 0FCE  
                     l1642 0FBA                       l1634 0E95                       l1802 0659  
                     l1626 0E24                       l1554 0E75                       l1618 0E4E  
                     l1730 07E8                       l1722 0734                       l1570 06A0  
                     l1562 0674                       l1714 0FB4                       l1706 0FAB  
                     l2098 0086                       l1660 0FEE                       l1652 0FD2  
                     l1644 0FBE                       l1636 0E9C                       l1628 0E80  
                     l1556 0E7C                       l1548 0E63                       l1724 073E  
                     l1740 07B4                       l1732 0793                       l1900 0269  
                     l1572 06AE                       l1564 0681                       l1716 0FB5  
                     l1708 0FAE                       l1662 0FF5                       l1654 0FD6  
                     l1646 0FC4                       l1638 0EA2                       l1726 074E  
                     l1750 07DF                       l1734 0798                       l1742 07BD  
                     l1590 0F5B                       l1582 0F3F                       l1910 027D  
                     l1902 026A                       l1574 06AF                       l1566 0685  
                     l1558 065F                       l1718 0FB6                       l1670 0F81  
                     l1656 0FE7                       l1648 0FC7                       l1664 0FFB  
                     l1760 0E0C                       l1728 0754                       l1744 07C3  
                     l1736 07A9                       l1592 0F62                       l1584 0F49  
                     l1752 0EAA                       l1920 0296                       l1904 026F  
                     l1912 027F                       l1576 06B8                       l1568 068E  
                     l1680 0F89                       l1672 0F83                       l1658 0FED  
                     l1762 0E11                       l1770 0E1A                       l1746 07D4  
                     l1738 07AE                       l1594 0F65                       l1586 0F4A  
                     l1754 0EAD                       l1930 02AA                       l1922 0297  
                     l1914 0287                       l1906 0274                       l1578 06BE  
                     l1690 0F91                       l1682 0F8A                       l1674 0F84  
                     l1780 0EEB                       l1772 0ED0                       l1764 07F5  
                     l1748 07D9                       l1596 0F6B                       l1588 0F58  
                     l1756 0EBA                       l1924 029C                       l1932 02AC  
                     l1916 028C                       l1908 027C                       l1860 057C  
                     l1692 0FA0                       l1684 0F8B                       l1676 0F85  
                     l1668 0F79                       l1790 05F1                       l1782 0EF3  
                     l1774 0ED5                       l1766 07FA                       l1598 0F6E  
                     l1758 0EC2                       l1950 02F5                       l1934 02BC  
                     l1942 02D5                       l1926 02A1                       l1918 0292  
                     l1870 05A3                       l1694 0FA3                       l1686 0F8C  
                     l1678 0F88                       l1792 0604                       l1784 0EFB  
                     l1776 0EDD                       l1768 0E15                       l1960 0314  
                     l1952 02FD                       l1944 02DA                       l1936 02C8  
                     l1928 02A9                       l1880 05B1                       l1872 05A5  
                     l1864 0585                       l1696 0FA4                       l1688 0F90  
                     l1794 061E                       l1778 0EE6                       l1970 0346  
                     l1962 0326                       l1954 0305                       l1938 02CC  
                     l1890 05DA                       l1874 05A9                       l1882 05C3  
                     l1866 059A                       l1858 056F                       l1698 0FA5  
                     l1796 0631                       l1788 05EB                       l1980 0367  
                     l1972 0347                       l1964 032A                       l1956 030D  
                     l1948 02E3                       l1892 05DF                       l1868 059B  
                     l1798 064F                       l1990 0380                       l1982 0369  
                     l1974 0355                       l1966 032B                       l1958 030F  
                     l1894 0258                       l1984 0372                       l1992 0386  
                     l1968 0334                       l1976 0359                       l1896 025F  
                     l1888 05CA                       l1994 038A                       l1986 0376  
                     l1978 035F                       l1898 0265                       l1996 038B  
                     l1988 0377                       l1998 038F                       ?_isr 0070  
                     STR_1 0806                       STR_2 0817                       STR_3 0817  
                     STR_4 081A                       STR_5 0818                       u1000 0E67  
                     u1001 0E66                       u1010 0E6E                       u1011 0E6D  
                     u1020 0E75                       u1100 06BE                       u1021 0E74  
                     u1101 06BD                       u1030 0E7C                       u1031 0E7B  
                     u1040 0671                       u1120 0F19                       u1041 0670  
                     u1210 0FD6                       u1130 0E24                       u1211 0FD5  
                     u1131 0E23                       u1115 0F4D                       u1140 0E2A  
                     u1300 0ECF                       u1060 0685                       u1205 0FC8  
                     u1141 0E29                       u1301 0ECE                       u1061 0684  
                     u1125 0F14                       u1230 0FE7                       u1150 0E88  
                     u1310 0EF3                       u1231 0FE6                       u1151 0E87  
                     u1311 0EF2                       u1055 0676                       u2007 00A3  
                     u1080 06A0                       u1225 0FD7                       u1081 069F  
                     u2017 0100                       u1250 0FFB                       u1251 0FFA  
                     u1235 0FE3                       u2107 0E57                       u1075 0687  
                     u2027 0134                       u1180 0EA2                       u1260 0798  
                     u1245 0FEF                       u1181 0EA1                       u1165 0E8F  
                     u1261 0797                       u1085 069C                       u2037 018C  
                     u1190 0FC4                       u1510 05DA                       u1430 057C  
                     u1191 0FC3                       u1175 0E96                       u1511 05D9  
                     u1431 057B                       u1095 06B0                       u2047 0227  
                     u1280 07C3                       u1600 02DA                       u1520 05DF  
                     u1440 0593                       u1281 07C2                       u2057 0F5F  
                     u1601 02D9                       u1521 05DE                       u1505 05CC  
                     u1610 0314                       u1530 0269                       u1450 05A9  
                     u1275 07A0                       u2067 0F72                       u1611 0313  
                     u1531 0268                       u1451 05A8                       u1700 0376  
                     u1540 026F                       u1460 05B0                       u2077 073A  
                     u1701 0375                       u1541 026E                       u1461 05AF  
                     u1445 058E                       u1550 0274                       u2087 074A  
                     u1295 07CB                       u1551 0273                       u1800 040B  
                     u1720 038A                       u1640 032A                       u1560 0296  
                     u1480 05C2                       u2097 075A                       u1801 040A  
                     u1721 0389                       u1641 0329                       u1625 0316  
                     u1561 0295                       u1481 05C1                       u1810 0422  
                     u1730 038F                       u1570 029C                       u1490 05C9  
                     u1811 0421                       u1731 038E                       u1715 0379  
                     u1635 031F                       u1571 029B                       u1491 05C8  
                     u1475 05B2                       u1740 03A3                       u1660 0346  
                     u1580 02A1                       u1900 04B4                       u1820 043D  
                     u1805 0407                       u1741 03A2                       u1661 0345  
                     u1581 02A0                       u1901 04B3                       u1821 043C  
                     u1750 03AA                       u1670 035F                       u1590 02BC  
                     u1910 04BA                       u1830 0441                       u1751 03A9  
                     u1671 035E                       u1655 032D                       u1591 02BB  
                     u1911 04B9                       u1831 0440                       u1760 03B0  
                     u1680 0367                       u1920 04BE                       u1840 0461  
                     u1761 03AF                       u1681 0366                       u1665 0342  
                     u1921 04BD                       u1841 0460                       u1770 03C2  
                     u1930 04D3                       u1771 03C1                       u1780 03D1  
                     u1940 04E3                       u1860 0482                       u1941 04E2  
                     u1861 0481                       u1790 03EE                       u1950 04E7  
                     u1791 03ED                       u1695 036B                       u1951 04E6  
                     u1935 04CE                       u1855 0474                       u1880 04A4  
                     u1785 03CC                       u1881 04A3                       u1795 03EA  
                     u1875 0496                       _PEIE 005E                       u1895 04A9  
                     _RCIF 0065                       u1997 006F                       _TXIF 0064  
        ?_Lcd_Write_String 0070                       _main 0029                       btemp 007E  
                     start 0010         ??_Lcd_Write_String 002B            __end_of_Decimal 065F  
          ___fldiv@new_exp 0046            __end_of_Lcd_Cmd 0E60                      ??_isr 0020  
         ?_I2C_Master_Init 0034           ?_I2C_Master_Read 0026           ?_I2C_Master_Wait 0070  
         ?_I2C_Master_Stop 0070              ___fltol@sign1 0057                      ?_main 0070  
          __end_of___fldiv 0435            __end_of___awdiv 072E            __end_of___fltol 05EB  
                    _ANSEL 0188            __end_of___lldiv 06C7            ___awdiv@divisor 0070  
          __end_of___lwdiv 1000                      i1l116 0565                      i1l124 0566  
                    i1l479 072D                      i1l780 0E43            ___awdiv@counter 0075  
                    _RCREG 001A                      _SPBRG 0099                      _PORTA 0005  
                    _PORTB 0006                      _PORTC 0007                      _PORTD 0008  
                    _PORTE 0009    __size_of_Lcd_Set_Cursor 0058                      _TRISA 0085  
                    _TRISB 0086                      _TRISC 0087                      _TRISD 0088  
                    _SSPIE 0463                      _TRISE 0089                      _SSPIF 0063  
                    _TXREG 0019                      _setup 0F79                      pclath 000A  
                    status 0003                      wtemp0 007E           __end_of_Lcd_Init 0790  
         __end_of_Lcd_Port 0E80            __initialization 0013               __end_of_main 0258  
                   ??_main 0059         __size_of_Lcd_Clear 000D          ?_I2C_Master_Start 0070  
        ?_I2C_Master_Write 0026         ??_I2C_Master_Start 0026         ??_I2C_Master_Write 0028  
         ___awdiv@dividend 0072                     ?_setup 0070                     _ANSELH 0189  
                   i1l2232 0557                     i1l2180 04FE                     i1l2172 04F1  
                   i1l2190 052F                     i1l2182 0514                     i1l2174 04F5  
                   i1l2192 0535                     i1l2184 0518                     i1l2176 04FA  
                   i1l1810 0E3D                     i1l2186 051A                     i1l2194 0539  
                   i1l1820 06D1                     i1l1804 0E2C                     i1l2188 0529  
                   i1l1830 06E2                     i1l1822 06D3                     i1l1814 06C7  
                   i1l1806 0E31                     i1l2198 054F                     i1l1840 06FA  
                   i1l1832 06E8                     i1l1824 06D7                     i1l1816 06C8  
                   i1l1808 0E35                     i1l1842 070B                     i1l1834 06EB  
                   i1l1850 071F                     i1l1826 06DC                     i1l1818 06CC  
                   i1l1852 0724                     i1l1844 0711                     i1l1836 06F2  
                   i1l1828 06E0                     i1l1854 0729                     i1l1846 0712  
                   i1l1838 06F6                     i1l1848 0719                  ??_Decimal 0030  
                   u211_27 0522                     u132_20 0E3D                     u132_21 0E3C  
                   u140_25 0713                     u141_20 071F                     u133_20 06CC  
                   u141_21 071E                     u133_21 06CB                     u142_20 0724  
                   u134_20 06D7                     u142_21 0723                     u134_21 06D6  
                   u135_20 06E8                     u135_21 06E7                     u136_25 06EC  
                   u137_20 06FA                     u137_21 06F9                     u138_25 06FB  
                   u139_20 070B                     u139_21 070A                     u139_25 0707  
                   u196_20 04F5                     u196_21 04F4                     u197_20 052F  
                   u197_21 052E                     u198_20 054E                     u198_21 054D  
                   u198_25 054A                  ??_Lcd_Cmd 0027                     _SPBRGH 009A  
  __size_of_Lcd_Write_Char 003D                     _SSPADD 0093                     _TRISC3 043B  
                   _TRISC4 043C                     _SSPCON 0014                     _SSPBUF 0013  
         __end_of___xxtofl 04F1                     _Decena 005F                     _Unidad 0060  
                   ___wmul 0E80                  ??___fldiv 003C                  ??___awdiv 0074  
                ??___fltol 0052                  ??___lldiv 002E                  ??___lwdiv 002A  
         ___awdiv@quotient 0077                     _opcion 007B                     _strlen 0E2B  
                   saved_w 007E            Lcd_Set_Cursor@a 002D            Lcd_Set_Cursor@b 002A  
          Lcd_Set_Cursor@y 002F            Lcd_Set_Cursor@z 002E               ___xxtofl@arg 0030  
             ___xxtofl@exp 002F               ___xxtofl@val 0026    __end_of__initialization 0025  
        __end_of_Lcd_Clear 07F5                 ___fltol@f1 004E             __pcstackCOMMON 0070  
             __pidataBANK0 07FF              __end_of_setup 0FBA             _Lcd_Set_Cursor 0790  
                ?_Lcd_Init 0070                  ?_Lcd_Port 0070                    ??_setup 003C  
               __pbssBANK0 005C                 __pmaintext 0029                    ?___wmul 0026  
               __pintentry 0004  __size_of_Lcd_Write_String 0029     __end_of_Lcd_Set_Cursor 07E8  
                  ?_strlen 0070                  ?___xxtofl 0026                 ??_Lcd_Init 002A  
               ??_Lcd_Port 0026                    _SSPCON2 0091                    _SSPSTAT 0094  
               __stringtab 0800                    _Decimal 05EB                    _Centena 005E  
           _Lcd_Write_Char 0F3C                    _Lcd_Cmd 0E44                    ___fldiv 0258  
                  ___awdiv 06C7                    ___fltol 056F                    ___lldiv 065F  
          __size_of___wmul 0027                    ___lwdiv 0FBA            ?_Lcd_Set_Cursor 002A  
                  __ptext1 0F79                    __ptext2 0F02                    __ptext3 065F  
                  __ptext4 0435                    __ptext5 056F                    __ptext6 0258  
                  __ptext7 0EA7                    __ptext8 0F3C                    __ptext9 0790  
          __size_of_strlen 0019               __size_of_isr 007E                 ??___xxtofl 002A  
 __size_of_I2C_Master_Init 003A   __size_of_I2C_Master_Read 0032   __size_of_I2C_Master_Wait 000D  
 __size_of_I2C_Master_Stop 0009     __end_of_Lcd_Write_Char 0F79       end_of_initialization 0025  
__size_of_I2C_Master_Start 0009  __size_of_I2C_Master_Write 000A               Decimal@valor 0032  
          ___lldiv@divisor 0026            ___lldiv@counter 0033                  _RCSTAbits 0018  
         I2C_Master_Init@c 0034           I2C_Master_Read@a 0026                  Lcd_Port@a 0026  
                  strlen@s 0073              ___xxtofl@sign 002E                  _TRISCbits 0087  
              ___fldiv@grs 0048                ___fldiv@rem 0041            ?_Lcd_Write_Char 0070  
        Lcd_Write_String@a 002D          Lcd_Write_String@i 002B                  _TXSTAbits 0098  
                _Lcd_Clear 07E8             __end_of___wmul 0EA7           _Lcd_Write_String 0EA7  
              _BAUDCTLbits 0187             __end_of_strlen 0E44        start_initialization 0013  
              __end_of_isr 056F          __size_of_Lcd_Init 0062          __size_of_Lcd_Port 0020  
        ??_I2C_Master_Init 0038          ??_I2C_Master_Read 0028          ??_I2C_Master_Wait 0026  
        ??_I2C_Master_Stop 0026                 ?_Lcd_Clear 0070                   ??___wmul 002A  
              __pdataBANK0 0065            Lcd_Write_Char@a 002A            Lcd_Write_Char@y 0029  
                 ??_strlen 0072                  ___fldiv@a 0034                  ___fldiv@b 0038  
              __pbssCOMMON 0079                  ___latbits 0002              __pcstackBANK0 0020  
        __size_of___xxtofl 00BC                   ?_Decimal 002E                   ?_Lcd_Cmd 0070  
         _I2C_Master_Start 0E0C           _I2C_Master_Write 07F5           ___lwdiv@dividend 0028  
         ??_Lcd_Set_Cursor 002B                   ?___fldiv 0034                   ?___awdiv 0070  
                 ?___fltol 004E                   ?___lldiv 0026                   ?___lwdiv 0026  
                __pstrings 0800                  _distancia 0079            Decimal@variable 002E  
         ___lwdiv@quotient 002B             __size_of_setup 0041          interrupt_function 0004  
           ___wmul@product 002A                   _PIE1bits 008C                   Lcd_Cmd@a 0029  
                 _PIR1bits 000C                ??_Lcd_Clear 002A                __stringbase 0805  
        ___wmul@multiplier 0026           ??_Lcd_Write_Char 0027                   _Lcd_Init 072E  
                 _Lcd_Port 0E60        I2C_Master_Read@temp 002A   __end_of_Lcd_Write_String 0ED0  
         __size_of_Decimal 0074           __size_of_Lcd_Cmd 001C           __size_of___fldiv 01DD  
         __size_of___awdiv 0067           __size_of___fltol 007C           __size_of___lldiv 0068  
         __size_of___lwdiv 0046         __end_of__stringtab 0806            _I2C_Master_Init 0F02  
          _I2C_Master_Read 0ED0                   ___xxtofl 0435            _I2C_Master_Wait 0E1E  
          _I2C_Master_Stop 0E15            ___lwdiv@divisor 0026            ___lwdiv@counter 002D  
                 __ptext10 072E                   __ptext11 07E8                   __ptext20 0E80  
                 __ptext12 0E44                   __ptext21 0FBA                   __ptext13 0E60  
                 __ptext22 04F1                   __ptext14 07F5                   __ptext23 0E2B  
                 __ptext15 0E15                   __ptext24 06C7                   __ptext16 0E0C  
                 __ptext17 0ED0                   __ptext18 0E1E                   __ptext19 05EB  
            __size_of_main 022F   __end_of_I2C_Master_Start 0E15   __end_of_I2C_Master_Write 07FF  
               _INTCONbits 000B         Lcd_Write_Char@temp 0028                   intlevel1 0000  
         ___lldiv@dividend 002A                  stringcode 0800                 _OSCCONbits 008F  
  __end_of_I2C_Master_Init 0F3C    __end_of_I2C_Master_Read 0F02    __end_of_I2C_Master_Wait 0E2B  
  __end_of_I2C_Master_Stop 0E1E         Lcd_Set_Cursor@temp 0030           ___lldiv@quotient 002F  
        I2C_Master_Write@d 0026                   strlen@cp 0074                   stringdir 0800  
                 stringtab 0800                _SSPCON2bits 0091  
